---
triple:          'x86_64-apple-darwin'
binary-path:     '/Users/aarush_mac/Documents/Programming/Cpp/Competitive Programming/Usaco/output/SpeedingTicket'
relocations:
  - { offset: 0x4B48, size: 0x8, addend: 0x0, symName: __ZNSt3__124__put_character_sequenceB8ne200100IcNS_11char_traitsIcEEEERNS_13basic_ostreamIT_T0_EES7_PKS4_m, symObjAddr: 0x1160, symBinAddr: 0x1000032C0, symSize: 0x1B0 }
  - { offset: 0x5FF0, size: 0x8, addend: 0x0, symName: __ZNSt3__1lsB8ne200100INS_11char_traitsIcEEEERNS_13basic_ostreamIcT_EES6_PKc, symObjAddr: 0x460, symBinAddr: 0x1000025C0, symSize: 0x40 }
  - { offset: 0x6036, size: 0x8, addend: 0x0, symName: __ZNSt3__14endlB8ne200100IcNS_11char_traitsIcEEEERNS_13basic_ostreamIT_T0_EES7_, symObjAddr: 0x4C0, symBinAddr: 0x100002620, symSize: 0x50 }
  - { offset: 0x6076, size: 0x8, addend: 0x0, symName: __ZNSt3__1lsB8ne200100INS_11char_traitsIcEEEERNS_13basic_ostreamIcT_EES6_c, symObjAddr: 0x510, symBinAddr: 0x100002670, symSize: 0x30 }
  - { offset: 0x60BC, size: 0x8, addend: 0x0, symName: __ZNSt3__122__make_exception_guardB8ne200100INS_6vectorINS_4pairIiiEENS_9allocatorIS3_EEE16__destroy_vectorEEENS_28__exception_guard_exceptionsIT_EES9_, symObjAddr: 0x630, symBinAddr: 0x100002790, symSize: 0x40 }
  - { offset: 0x60F1, size: 0x8, addend: 0x0, symName: __ZNSt3__119__allocate_at_leastB8ne200100INS_9allocatorINS_4pairIiiEEEEEENS_19__allocation_resultINS_16allocator_traitsIT_E7pointerEEERS7_m, symObjAddr: 0x900, symBinAddr: 0x100002A60, symSize: 0x40 }
  - { offset: 0x6134, size: 0x8, addend: 0x0, symName: __ZNSt3__13minB8ne200100ImEERKT_S3_S3_, symObjAddr: 0x950, symBinAddr: 0x100002AB0, symSize: 0x30 }
  - { offset: 0x6361, size: 0x8, addend: 0x0, symName: __ZNSt3__13minB8ne200100ImNS_6__lessIvvEEEERKT_S5_S5_T0_, symObjAddr: 0x9C0, symBinAddr: 0x100002B20, symSize: 0x50 }
  - { offset: 0x65F0, size: 0x8, addend: 0x0, symName: __ZNSt3__120__throw_length_errorB8ne200100EPKc, symObjAddr: 0xA70, symBinAddr: 0x100002BD0, symSize: 0x60 }
  - { offset: 0x6618, size: 0x8, addend: 0x0, symName: __ZNSt3__117__libcpp_allocateB8ne200100INS_4pairIiiEEEEPT_NS_15__element_countEm, symObjAddr: 0xBD0, symBinAddr: 0x100002D30, symSize: 0x60 }
  - { offset: 0x6685, size: 0x8, addend: 0x0, symName: __ZNSt3__124__is_overaligned_for_newB8ne200100Em, symObjAddr: 0xC30, symBinAddr: 0x100002D90, symSize: 0x20 }
  - { offset: 0x66B1, size: 0x8, addend: 0x0, symName: __ZNSt3__121__libcpp_operator_newB8ne200100IJmSt11align_val_tEEEPvDpT_, symObjAddr: 0xC50, symBinAddr: 0x100002DB0, symSize: 0x30 }
  - { offset: 0x66FB, size: 0x8, addend: 0x0, symName: __ZNSt3__121__libcpp_operator_newB8ne200100IJmEEEPvDpT_, symObjAddr: 0xC80, symBinAddr: 0x100002DE0, symSize: 0x20 }
  - { offset: 0x6732, size: 0x8, addend: 0x0, symName: __ZNSt3__112__to_addressB8ne200100INS_4pairIiiEEEEPT_S4_, symObjAddr: 0xCF0, symBinAddr: 0x100002E50, symSize: 0x10 }
  - { offset: 0x6767, size: 0x8, addend: 0x0, symName: __ZNSt3__114__construct_atB8ne200100INS_4pairIiiEEJEPS2_EEPT_S5_DpOT0_, symObjAddr: 0xD60, symBinAddr: 0x100002EC0, symSize: 0x20 }
  - { offset: 0x67A6, size: 0x8, addend: 0x0, symName: __ZNSt3__112construct_atB8ne200100INS_4pairIiiEEJEPS2_EEPT_S5_DpOT0_, symObjAddr: 0xD80, symBinAddr: 0x100002EE0, symSize: 0x30 }
  - { offset: 0x67E5, size: 0x8, addend: 0x0, symName: __ZNSt3__112__destroy_atB8ne200100INS_4pairIiiEETnNS_9enable_ifIXntsr8is_arrayIT_EE5valueEiE4typeELi0EEEvPS4_, symObjAddr: 0x1020, symBinAddr: 0x100003180, symSize: 0x10 }
  - { offset: 0x681C, size: 0x8, addend: 0x0, symName: __ZNSt3__119__libcpp_deallocateB8ne200100INS_4pairIiiEEEEvPNS_15__type_identityIT_E4typeENS_15__element_countEm, symObjAddr: 0x1060, symBinAddr: 0x1000031C0, symSize: 0x60 }
  - { offset: 0x6893, size: 0x8, addend: 0x0, symName: __ZNSt3__124__libcpp_operator_deleteB8ne200100IJPNS_4pairIiiEEmSt11align_val_tEEEvDpT_, symObjAddr: 0x10C0, symBinAddr: 0x100003220, symSize: 0x30 }
  - { offset: 0x68EC, size: 0x8, addend: 0x0, symName: __ZNSt3__124__libcpp_operator_deleteB8ne200100IJPNS_4pairIiiEEmEEEvDpT_, symObjAddr: 0x10F0, symBinAddr: 0x100003250, symSize: 0x30 }
  - { offset: 0x6932, size: 0x8, addend: 0x0, symName: __ZNSt3__116__pad_and_outputB8ne200100IcNS_11char_traitsIcEEEENS_19ostreambuf_iteratorIT_T0_EES6_PKS4_S8_S8_RNS_8ios_baseES4_, symObjAddr: 0x1350, symBinAddr: 0x1000034B0, symSize: 0x1E0 }
  - { offset: 0x69F7, size: 0x8, addend: 0x0, symName: __ZNSt3__112__to_addressB8ne200100IcEEPT_S2_, symObjAddr: 0x17A0, symBinAddr: 0x100003900, symSize: 0x10 }
  - { offset: 0x6A2C, size: 0x8, addend: 0x0, symName: __ZNSt3__19use_facetB8ne200100INS_5ctypeIcEEEERKT_RKNS_6localeE, symObjAddr: 0x19F0, symBinAddr: 0x100003B50, symSize: 0x30 }
  - { offset: 0x6F59, size: 0x8, addend: 0x0, symName: __ZNSt3__118__constexpr_strlenB8ne200100IcEEmPKT_, symObjAddr: 0x1A80, symBinAddr: 0x100003BE0, symSize: 0x1B }
  - { offset: 0x7E85, size: 0x8, addend: 0x0, symName: __ZSt28__throw_bad_array_new_lengthB8ne200100v, symObjAddr: 0xB90, symBinAddr: 0x100002CF0, symSize: 0x40 }
  - { offset: 0x833E, size: 0x8, addend: 0x0, symName: _main, symObjAddr: 0x0, symBinAddr: 0x100002160, symSize: 0x3E0 }
  - { offset: 0x8451, size: 0x8, addend: 0x0, symName: __ZNSt3__19basic_iosIcNS_11char_traitsIcEEE3tieB8ne200100EPNS_13basic_ostreamIcS2_EE, symObjAddr: 0x3E0, symBinAddr: 0x100002540, symSize: 0x30 }
  - { offset: 0x8496, size: 0x8, addend: 0x0, symName: __ZNSt3__16vectorINS_4pairIiiEENS_9allocatorIS2_EEEC1B8ne200100Em, symObjAddr: 0x410, symBinAddr: 0x100002570, symSize: 0x30 }
  - { offset: 0x84CD, size: 0x8, addend: 0x0, symName: __ZNSt3__16vectorINS_4pairIiiEENS_9allocatorIS2_EEEixB8ne200100Em, symObjAddr: 0x440, symBinAddr: 0x1000025A0, symSize: 0x20 }
  - { offset: 0x8501, size: 0x8, addend: 0x0, symName: __ZNSt3__113basic_ostreamIcNS_11char_traitsIcEEElsB8ne200100EPFRS3_S4_E, symObjAddr: 0x4A0, symBinAddr: 0x100002600, symSize: 0x20 }
  - { offset: 0x8535, size: 0x8, addend: 0x0, symName: __ZNSt3__16vectorINS_4pairIiiEENS_9allocatorIS2_EEED1B8ne200100Ev, symObjAddr: 0x540, symBinAddr: 0x1000026A0, symSize: 0x20 }
  - { offset: 0x855F, size: 0x8, addend: 0x0, symName: __ZNSt3__16vectorINS_4pairIiiEENS_9allocatorIS2_EEEC2B8ne200100Em, symObjAddr: 0x560, symBinAddr: 0x1000026C0, symSize: 0xB0 }
  - { offset: 0x85AB, size: 0x8, addend: 0x0, symName: __ZNSt3__19allocatorINS_4pairIiiEEEC1B8ne200100Ev, symObjAddr: 0x610, symBinAddr: 0x100002770, symSize: 0x20 }
  - { offset: 0x85D5, size: 0x8, addend: 0x0, symName: __ZNSt3__16vectorINS_4pairIiiEENS_9allocatorIS2_EEE16__destroy_vectorC1B8ne200100ERS5_, symObjAddr: 0x670, symBinAddr: 0x1000027D0, symSize: 0x30 }
  - { offset: 0x860C, size: 0x8, addend: 0x0, symName: __ZNSt3__16vectorINS_4pairIiiEENS_9allocatorIS2_EEE11__vallocateB8ne200100Em, symObjAddr: 0x6A0, symBinAddr: 0x100002800, symSize: 0x80 }
  - { offset: 0x8650, size: 0x8, addend: 0x0, symName: __ZNSt3__16vectorINS_4pairIiiEENS_9allocatorIS2_EEE18__construct_at_endEm, symObjAddr: 0x720, symBinAddr: 0x100002880, symSize: 0xA0 }
  - { offset: 0x86C2, size: 0x8, addend: 0x0, symName: __ZNSt3__128__exception_guard_exceptionsINS_6vectorINS_4pairIiiEENS_9allocatorIS3_EEE16__destroy_vectorEE10__completeB8ne200100Ev, symObjAddr: 0x7C0, symBinAddr: 0x100002920, symSize: 0x20 }
  - { offset: 0x86E8, size: 0x8, addend: 0x0, symName: __ZNSt3__128__exception_guard_exceptionsINS_6vectorINS_4pairIiiEENS_9allocatorIS3_EEE16__destroy_vectorEED1B8ne200100Ev, symObjAddr: 0x7E0, symBinAddr: 0x100002940, symSize: 0x20 }
  - { offset: 0x8712, size: 0x8, addend: 0x0, symName: __ZNSt3__19allocatorINS_4pairIiiEEEC2B8ne200100Ev, symObjAddr: 0x800, symBinAddr: 0x100002960, symSize: 0x20 }
  - { offset: 0x873C, size: 0x8, addend: 0x0, symName: __ZNSt3__116__non_trivial_ifILb1ENS_9allocatorINS_4pairIiiEEEEEC2B8ne200100Ev, symObjAddr: 0x820, symBinAddr: 0x100002980, symSize: 0x10 }
  - { offset: 0x8766, size: 0x8, addend: 0x0, symName: __ZNSt3__128__exception_guard_exceptionsINS_6vectorINS_4pairIiiEENS_9allocatorIS3_EEE16__destroy_vectorEEC1B8ne200100ES7_, symObjAddr: 0x830, symBinAddr: 0x100002990, symSize: 0x30 }
  - { offset: 0x879E, size: 0x8, addend: 0x0, symName: __ZNSt3__128__exception_guard_exceptionsINS_6vectorINS_4pairIiiEENS_9allocatorIS3_EEE16__destroy_vectorEEC2B8ne200100ES7_, symObjAddr: 0x860, symBinAddr: 0x1000029C0, symSize: 0x20 }
  - { offset: 0x87D6, size: 0x8, addend: 0x0, symName: __ZNSt3__16vectorINS_4pairIiiEENS_9allocatorIS2_EEE16__destroy_vectorC2B8ne200100ERS5_, symObjAddr: 0x880, symBinAddr: 0x1000029E0, symSize: 0x20 }
  - { offset: 0x880D, size: 0x8, addend: 0x0, symName: __ZNKSt3__16vectorINS_4pairIiiEENS_9allocatorIS2_EEE8max_sizeB8ne200100Ev, symObjAddr: 0x8A0, symBinAddr: 0x100002A00, symSize: 0x50 }
  - { offset: 0x8833, size: 0x8, addend: 0x0, symName: __ZNSt3__16vectorINS_4pairIiiEENS_9allocatorIS2_EEE20__throw_length_errorB8ne200100Ev, symObjAddr: 0x8F0, symBinAddr: 0x100002A50, symSize: 0x10 }
  - { offset: 0x8846, size: 0x8, addend: 0x0, symName: __ZNKSt3__16vectorINS_4pairIiiEENS_9allocatorIS2_EEE14__annotate_newB8ne200100Em, symObjAddr: 0x940, symBinAddr: 0x100002AA0, symSize: 0x10 }
  - { offset: 0x8885, size: 0x8, addend: 0x0, symName: __ZNSt3__116allocator_traitsINS_9allocatorINS_4pairIiiEEEEE8max_sizeB8ne200100IS4_vTnNS_9enable_ifIXntsr14__has_max_sizeIKT_EE5valueEiE4typeELi0EEEmRKS4_, symObjAddr: 0x980, symBinAddr: 0x100002AE0, symSize: 0x20 }
  - { offset: 0x88B6, size: 0x8, addend: 0x0, symName: __ZNSt3__114numeric_limitsIlE3maxB8ne200100Ev, symObjAddr: 0x9A0, symBinAddr: 0x100002B00, symSize: 0x10 }
  - { offset: 0x88DD, size: 0x8, addend: 0x0, symName: __ZNKSt3__16__lessIvvEclB8ne200100ImmEEbRKT_RKT0_, symObjAddr: 0xA10, symBinAddr: 0x100002B70, symSize: 0x30 }
  - { offset: 0x8931, size: 0x8, addend: 0x0, symName: __ZNSt3__114numeric_limitsImE3maxB8ne200100Ev, symObjAddr: 0xA40, symBinAddr: 0x100002BA0, symSize: 0x10 }
  - { offset: 0x8945, size: 0x8, addend: 0x0, symName: __ZNSt3__123__libcpp_numeric_limitsImLb1EE3maxB8ne200100Ev, symObjAddr: 0xA50, symBinAddr: 0x100002BB0, symSize: 0x10 }
  - { offset: 0x8959, size: 0x8, addend: 0x0, symName: __ZNSt3__123__libcpp_numeric_limitsIlLb1EE3maxB8ne200100Ev, symObjAddr: 0xA60, symBinAddr: 0x100002BC0, symSize: 0x10 }
  - { offset: 0x896D, size: 0x8, addend: 0x0, symName: __ZNSt12length_errorC1B8ne200100EPKc, symObjAddr: 0xAD0, symBinAddr: 0x100002C30, symSize: 0x30 }
  - { offset: 0x89A5, size: 0x8, addend: 0x0, symName: __ZNSt12length_errorC2B8ne200100EPKc, symObjAddr: 0xB00, symBinAddr: 0x100002C60, symSize: 0x40 }
  - { offset: 0x89DC, size: 0x8, addend: 0x0, symName: __ZNSt3__19allocatorINS_4pairIiiEEE8allocateB8ne200100Em, symObjAddr: 0xB40, symBinAddr: 0x100002CA0, symSize: 0x50 }
  - { offset: 0x8A29, size: 0x8, addend: 0x0, symName: __ZNSt3__16vectorINS_4pairIiiEENS_9allocatorIS2_EEE21_ConstructTransactionC1B8ne200100ERS5_m, symObjAddr: 0xCA0, symBinAddr: 0x100002E00, symSize: 0x30 }
  - { offset: 0x8A71, size: 0x8, addend: 0x0, symName: __ZNSt3__116allocator_traitsINS_9allocatorINS_4pairIiiEEEEE9constructB8ne200100IS3_JEvTnNS_9enable_ifIXntsr15__has_constructIS4_PT_DpT0_EE5valueEiE4typeELi0EEEvRS4_S9_DpOSA_, symObjAddr: 0xCD0, symBinAddr: 0x100002E30, symSize: 0x20 }
  - { offset: 0x8AB6, size: 0x8, addend: 0x0, symName: __ZNSt3__16vectorINS_4pairIiiEENS_9allocatorIS2_EEE21_ConstructTransactionD1B8ne200100Ev, symObjAddr: 0xD00, symBinAddr: 0x100002E60, symSize: 0x20 }
  - { offset: 0x8AE0, size: 0x8, addend: 0x0, symName: __ZNSt3__16vectorINS_4pairIiiEENS_9allocatorIS2_EEE21_ConstructTransactionC2B8ne200100ERS5_m, symObjAddr: 0xD20, symBinAddr: 0x100002E80, symSize: 0x40 }
  - { offset: 0x8B28, size: 0x8, addend: 0x0, symName: __ZNSt3__14pairIiiEC1B8ne200100ILb1ETnNS_9enable_ifIXclsr13_CheckArgsDepIXT_EEE16__enable_defaultEEiE4typeELi0EEEv, symObjAddr: 0xDB0, symBinAddr: 0x100002F10, symSize: 0x20 }
  - { offset: 0x8B62, size: 0x8, addend: 0x0, symName: __ZNSt3__14pairIiiEC2B8ne200100ILb1ETnNS_9enable_ifIXclsr13_CheckArgsDepIXT_EEE16__enable_defaultEEiE4typeELi0EEEv, symObjAddr: 0xDD0, symBinAddr: 0x100002F30, symSize: 0x20 }
  - { offset: 0x8B9C, size: 0x8, addend: 0x0, symName: __ZNSt3__16vectorINS_4pairIiiEENS_9allocatorIS2_EEE21_ConstructTransactionD2B8ne200100Ev, symObjAddr: 0xDF0, symBinAddr: 0x100002F50, symSize: 0x20 }
  - { offset: 0x8BC6, size: 0x8, addend: 0x0, symName: __ZNSt3__128__exception_guard_exceptionsINS_6vectorINS_4pairIiiEENS_9allocatorIS3_EEE16__destroy_vectorEED2B8ne200100Ev, symObjAddr: 0xE10, symBinAddr: 0x100002F70, symSize: 0x40 }
  - { offset: 0x8BEF, size: 0x8, addend: 0x0, symName: __ZNSt3__16vectorINS_4pairIiiEENS_9allocatorIS2_EEE16__destroy_vectorclB8ne200100Ev, symObjAddr: 0xE50, symBinAddr: 0x100002FB0, symSize: 0x70 }
  - { offset: 0x8C14, size: 0x8, addend: 0x0, symName: __ZNSt3__16vectorINS_4pairIiiEENS_9allocatorIS2_EEE5clearB8ne200100Ev, symObjAddr: 0xEC0, symBinAddr: 0x100003020, symSize: 0x40 }
  - { offset: 0x8C49, size: 0x8, addend: 0x0, symName: __ZNKSt3__16vectorINS_4pairIiiEENS_9allocatorIS2_EEE17__annotate_deleteB8ne200100Ev, symObjAddr: 0xF00, symBinAddr: 0x100003060, symSize: 0x10 }
  - { offset: 0x8C6F, size: 0x8, addend: 0x0, symName: __ZNSt3__116allocator_traitsINS_9allocatorINS_4pairIiiEEEEE10deallocateB8ne200100ERS4_PS3_m, symObjAddr: 0xF10, symBinAddr: 0x100003070, symSize: 0x30 }
  - { offset: 0x8CB0, size: 0x8, addend: 0x0, symName: __ZNKSt3__16vectorINS_4pairIiiEENS_9allocatorIS2_EEE8capacityB8ne200100Ev, symObjAddr: 0xF40, symBinAddr: 0x1000030A0, symSize: 0x20 }
  - { offset: 0x8CD5, size: 0x8, addend: 0x0, symName: __ZNKSt3__16vectorINS_4pairIiiEENS_9allocatorIS2_EEE4sizeB8ne200100Ev, symObjAddr: 0xF60, symBinAddr: 0x1000030C0, symSize: 0x20 }
  - { offset: 0x8CFA, size: 0x8, addend: 0x0, symName: __ZNSt3__16vectorINS_4pairIiiEENS_9allocatorIS2_EEE22__base_destruct_at_endB8ne200100EPS2_, symObjAddr: 0xF80, symBinAddr: 0x1000030E0, symSize: 0x70 }
  - { offset: 0x8D3E, size: 0x8, addend: 0x0, symName: __ZNKSt3__16vectorINS_4pairIiiEENS_9allocatorIS2_EEE17__annotate_shrinkB8ne200100Em, symObjAddr: 0xFF0, symBinAddr: 0x100003150, symSize: 0x10 }
  - { offset: 0x8D73, size: 0x8, addend: 0x0, symName: __ZNSt3__116allocator_traitsINS_9allocatorINS_4pairIiiEEEEE7destroyB8ne200100IS3_vTnNS_9enable_ifIXntsr13__has_destroyIS4_PT_EE5valueEiE4typeELi0EEEvRS4_S9_, symObjAddr: 0x1000, symBinAddr: 0x100003160, symSize: 0x20 }
  - { offset: 0x8DB2, size: 0x8, addend: 0x0, symName: __ZNSt3__19allocatorINS_4pairIiiEEE10deallocateB8ne200100EPS2_m, symObjAddr: 0x1030, symBinAddr: 0x100003190, symSize: 0x30 }
  - { offset: 0x8DF4, size: 0x8, addend: 0x0, symName: __ZNSt3__16vectorINS_4pairIiiEENS_9allocatorIS2_EEED2B8ne200100Ev, symObjAddr: 0x1120, symBinAddr: 0x100003280, symSize: 0x40 }
  - { offset: 0x8E1E, size: 0x8, addend: 0x0, symName: __ZNSt3__111char_traitsIcE6lengthB8ne200100EPKc, symObjAddr: 0x1310, symBinAddr: 0x100003470, symSize: 0x20 }
  - { offset: 0x8E5E, size: 0x8, addend: 0x0, symName: __ZNKSt3__113basic_ostreamIcNS_11char_traitsIcEEE6sentrycvbB8ne200100Ev, symObjAddr: 0x1330, symBinAddr: 0x100003490, symSize: 0x20 }
  - { offset: 0x8E84, size: 0x8, addend: 0x0, symName: __ZNSt3__119ostreambuf_iteratorIcNS_11char_traitsIcEEEC1B8ne200100ERNS_13basic_ostreamIcS2_EE, symObjAddr: 0x1530, symBinAddr: 0x100003690, symSize: 0x30 }
  - { offset: 0x8EBC, size: 0x8, addend: 0x0, symName: __ZNKSt3__18ios_base5flagsB8ne200100Ev, symObjAddr: 0x1560, symBinAddr: 0x1000036C0, symSize: 0x20 }
  - { offset: 0x8EE3, size: 0x8, addend: 0x0, symName: __ZNKSt3__19basic_iosIcNS_11char_traitsIcEEE4fillB8ne200100Ev, symObjAddr: 0x1580, symBinAddr: 0x1000036E0, symSize: 0x60 }
  - { offset: 0x8F08, size: 0x8, addend: 0x0, symName: __ZNKSt3__119ostreambuf_iteratorIcNS_11char_traitsIcEEE6failedB8ne200100Ev, symObjAddr: 0x15E0, symBinAddr: 0x100003740, symSize: 0x20 }
  - { offset: 0x8F2D, size: 0x8, addend: 0x0, symName: __ZNSt3__19basic_iosIcNS_11char_traitsIcEEE8setstateB8ne200100Ej, symObjAddr: 0x1600, symBinAddr: 0x100003760, symSize: 0x30 }
  - { offset: 0x8F62, size: 0x8, addend: 0x0, symName: __ZNKSt3__18ios_base5widthB8ne200100Ev, symObjAddr: 0x1630, symBinAddr: 0x100003790, symSize: 0x20 }
  - { offset: 0x8F89, size: 0x8, addend: 0x0, symName: __ZNSt3__115basic_streambufIcNS_11char_traitsIcEEE5sputnB8ne200100EPKcl, symObjAddr: 0x1650, symBinAddr: 0x1000037B0, symSize: 0x30 }
  - { offset: 0x8FCB, size: 0x8, addend: 0x0, symName: __ZNSt3__112basic_stringIcNS_11char_traitsIcEENS_9allocatorIcEEEC1B8ne200100Emc, symObjAddr: 0x1680, symBinAddr: 0x1000037E0, symSize: 0x30 }
  - { offset: 0x9012, size: 0x8, addend: 0x0, symName: __ZNSt3__112basic_stringIcNS_11char_traitsIcEENS_9allocatorIcEEE4dataB8ne200100Ev, symObjAddr: 0x16B0, symBinAddr: 0x100003810, symSize: 0x30 }
  - { offset: 0x9038, size: 0x8, addend: 0x0, symName: __ZNSt3__18ios_base5widthB8ne200100El, symObjAddr: 0x16E0, symBinAddr: 0x100003840, symSize: 0x30 }
  - { offset: 0x907F, size: 0x8, addend: 0x0, symName: __ZNSt3__112basic_stringIcNS_11char_traitsIcEENS_9allocatorIcEEEC2B8ne200100Emc, symObjAddr: 0x1710, symBinAddr: 0x100003870, symSize: 0x40 }
  - { offset: 0x90C7, size: 0x8, addend: 0x0, symName: __ZNSt3__19allocatorIcEC1B8ne200100Ev, symObjAddr: 0x1750, symBinAddr: 0x1000038B0, symSize: 0x20 }
  - { offset: 0x90F1, size: 0x8, addend: 0x0, symName: __ZNSt3__19allocatorIcEC2B8ne200100Ev, symObjAddr: 0x1770, symBinAddr: 0x1000038D0, symSize: 0x20 }
  - { offset: 0x911B, size: 0x8, addend: 0x0, symName: __ZNSt3__116__non_trivial_ifILb1ENS_9allocatorIcEEEC2B8ne200100Ev, symObjAddr: 0x1790, symBinAddr: 0x1000038F0, symSize: 0x10 }
  - { offset: 0x9144, size: 0x8, addend: 0x0, symName: __ZNSt3__112basic_stringIcNS_11char_traitsIcEENS_9allocatorIcEEE13__get_pointerB8ne200100Ev, symObjAddr: 0x17B0, symBinAddr: 0x100003910, symSize: 0x50 }
  - { offset: 0x9169, size: 0x8, addend: 0x0, symName: __ZNKSt3__112basic_stringIcNS_11char_traitsIcEENS_9allocatorIcEEE9__is_longB8ne200100Ev, symObjAddr: 0x1800, symBinAddr: 0x100003960, symSize: 0x20 }
  - { offset: 0x918E, size: 0x8, addend: 0x0, symName: __ZNSt3__112basic_stringIcNS_11char_traitsIcEENS_9allocatorIcEEE18__get_long_pointerB8ne200100Ev, symObjAddr: 0x1820, symBinAddr: 0x100003980, symSize: 0x20 }
  - { offset: 0x91B3, size: 0x8, addend: 0x0, symName: __ZNSt3__112basic_stringIcNS_11char_traitsIcEENS_9allocatorIcEEE19__get_short_pointerB8ne200100Ev, symObjAddr: 0x1840, symBinAddr: 0x1000039A0, symSize: 0x20 }
  - { offset: 0x91D9, size: 0x8, addend: 0x0, symName: __ZNSt3__114pointer_traitsIPcE10pointer_toB8ne200100ERc, symObjAddr: 0x1860, symBinAddr: 0x1000039C0, symSize: 0x10 }
  - { offset: 0x91FC, size: 0x8, addend: 0x0, symName: __ZNSt3__119ostreambuf_iteratorIcNS_11char_traitsIcEEEC2B8ne200100ERNS_13basic_ostreamIcS2_EE, symObjAddr: 0x1870, symBinAddr: 0x1000039D0, symSize: 0x50 }
  - { offset: 0x9233, size: 0x8, addend: 0x0, symName: __ZNKSt3__19basic_iosIcNS_11char_traitsIcEEE5rdbufB8ne200100Ev, symObjAddr: 0x18C0, symBinAddr: 0x100003A20, symSize: 0x20 }
  - { offset: 0x9258, size: 0x8, addend: 0x0, symName: __ZNKSt3__18ios_base5rdbufB8ne200100Ev, symObjAddr: 0x18E0, symBinAddr: 0x100003A40, symSize: 0x20 }
  - { offset: 0x927D, size: 0x8, addend: 0x0, symName: __ZNKSt3__118_SentinelValueFillINS_11char_traitsIcEEE8__is_setB8ne200100Ev, symObjAddr: 0x1900, symBinAddr: 0x100003A60, symSize: 0x30 }
  - { offset: 0x92A2, size: 0x8, addend: 0x0, symName: __ZNKSt3__19basic_iosIcNS_11char_traitsIcEEE5widenB8ne200100Ec, symObjAddr: 0x1930, symBinAddr: 0x100003A90, symSize: 0x80 }
  - { offset: 0x92D6, size: 0x8, addend: 0x0, symName: __ZNSt3__118_SentinelValueFillINS_11char_traitsIcEEEaSB8ne200100Ei, symObjAddr: 0x19B0, symBinAddr: 0x100003B10, symSize: 0x20 }
  - { offset: 0x930A, size: 0x8, addend: 0x0, symName: __ZNKSt3__118_SentinelValueFillINS_11char_traitsIcEEE5__getB8ne200100Ev, symObjAddr: 0x19D0, symBinAddr: 0x100003B30, symSize: 0x10 }
  - { offset: 0x9330, size: 0x8, addend: 0x0, symName: __ZNSt3__111char_traitsIcE3eofB8ne200100Ev, symObjAddr: 0x19E0, symBinAddr: 0x100003B40, symSize: 0x10 }
  - { offset: 0x9385, size: 0x8, addend: 0x0, symName: __ZNKSt3__15ctypeIcE5widenB8ne200100Ec, symObjAddr: 0x1A20, symBinAddr: 0x100003B80, symSize: 0x30 }
  - { offset: 0x93BA, size: 0x8, addend: 0x0, symName: __ZNSt3__18ios_base8setstateB8ne200100Ej, symObjAddr: 0x1A50, symBinAddr: 0x100003BB0, symSize: 0x30 }
...
