---
triple:          'x86_64-apple-darwin'
binary-path:     a.out
relocations:
  - { offset: 0x12430, size: 0x8, addend: 0x0, symName: __ZNSt3__1eqB8ne200100IPNS_4pairIiiEEEEbRKNS_11__wrap_iterIT_EES8_, symObjAddr: 0x9C0, symBinAddr: 0x100001FF0, symSize: 0x40 }
  - { offset: 0x12473, size: 0x8, addend: 0x0, symName: __ZNSt3__13maxB8ne200100IiEERKT_S3_S3_, symObjAddr: 0xAB0, symBinAddr: 0x1000020E0, symSize: 0x30 }
  - { offset: 0x124B6, size: 0x8, addend: 0x0, symName: __ZNSt3__122__make_exception_guardB8ne200100INS_6vectorINS_4pairIiiEENS_9allocatorIS3_EEE16__destroy_vectorEEENS_28__exception_guard_exceptionsIT_EES9_, symObjAddr: 0xCF0, symBinAddr: 0x100002320, symSize: 0x40 }
  - { offset: 0x124EB, size: 0x8, addend: 0x0, symName: __ZNSt3__119__allocate_at_leastB8ne200100INS_9allocatorINS_4pairIiiEEEEEENS_19__allocation_resultINS_16allocator_traitsIT_E7pointerEEERS7_m, symObjAddr: 0xFC0, symBinAddr: 0x1000025F0, symSize: 0x40 }
  - { offset: 0x1252E, size: 0x8, addend: 0x0, symName: __ZNSt3__13minB8ne200100ImEERKT_S3_S3_, symObjAddr: 0x1010, symBinAddr: 0x100002640, symSize: 0x30 }
  - { offset: 0x1275B, size: 0x8, addend: 0x0, symName: __ZNSt3__13minB8ne200100ImNS_6__lessIvvEEEERKT_S5_S5_T0_, symObjAddr: 0x1080, symBinAddr: 0x1000026B0, symSize: 0x50 }
  - { offset: 0x12A1F, size: 0x8, addend: 0x0, symName: __ZNSt3__120__throw_length_errorB8ne200100EPKc, symObjAddr: 0x1130, symBinAddr: 0x100002760, symSize: 0x60 }
  - { offset: 0x12A47, size: 0x8, addend: 0x0, symName: __ZNSt3__117__libcpp_allocateB8ne200100INS_4pairIiiEEEEPT_NS_15__element_countEm, symObjAddr: 0x1290, symBinAddr: 0x1000028C0, symSize: 0x60 }
  - { offset: 0x12AB4, size: 0x8, addend: 0x0, symName: __ZNSt3__124__is_overaligned_for_newB8ne200100Em, symObjAddr: 0x12F0, symBinAddr: 0x100002920, symSize: 0x20 }
  - { offset: 0x12AE0, size: 0x8, addend: 0x0, symName: __ZNSt3__121__libcpp_operator_newB8ne200100IJmSt11align_val_tEEEPvDpT_, symObjAddr: 0x1310, symBinAddr: 0x100002940, symSize: 0x30 }
  - { offset: 0x12B2A, size: 0x8, addend: 0x0, symName: __ZNSt3__121__libcpp_operator_newB8ne200100IJmEEEPvDpT_, symObjAddr: 0x1340, symBinAddr: 0x100002970, symSize: 0x20 }
  - { offset: 0x12B61, size: 0x8, addend: 0x0, symName: __ZNSt3__112__to_addressB8ne200100INS_4pairIiiEEEEPT_S4_, symObjAddr: 0x13B0, symBinAddr: 0x1000029E0, symSize: 0x10 }
  - { offset: 0x12B96, size: 0x8, addend: 0x0, symName: __ZNSt3__114__construct_atB8ne200100INS_4pairIiiEEJEPS2_EEPT_S5_DpOT0_, symObjAddr: 0x1420, symBinAddr: 0x100002A50, symSize: 0x20 }
  - { offset: 0x12BD5, size: 0x8, addend: 0x0, symName: __ZNSt3__112construct_atB8ne200100INS_4pairIiiEEJEPS2_EEPT_S5_DpOT0_, symObjAddr: 0x1440, symBinAddr: 0x100002A70, symSize: 0x30 }
  - { offset: 0x12C14, size: 0x8, addend: 0x0, symName: __ZNSt3__112__destroy_atB8ne200100INS_4pairIiiEETnNS_9enable_ifIXntsr8is_arrayIT_EE5valueEiE4typeELi0EEEvPS4_, symObjAddr: 0x16E0, symBinAddr: 0x100002D10, symSize: 0x10 }
  - { offset: 0x12C4B, size: 0x8, addend: 0x0, symName: __ZNSt3__119__libcpp_deallocateB8ne200100INS_4pairIiiEEEEvPNS_15__type_identityIT_E4typeENS_15__element_countEm, symObjAddr: 0x1720, symBinAddr: 0x100002D50, symSize: 0x60 }
  - { offset: 0x12CC2, size: 0x8, addend: 0x0, symName: __ZNSt3__124__libcpp_operator_deleteB8ne200100IJPNS_4pairIiiEEmSt11align_val_tEEEvDpT_, symObjAddr: 0x1780, symBinAddr: 0x100002DB0, symSize: 0x30 }
  - { offset: 0x12D1B, size: 0x8, addend: 0x0, symName: __ZNSt3__124__libcpp_operator_deleteB8ne200100IJPNS_4pairIiiEEmEEEvDpT_, symObjAddr: 0x17B0, symBinAddr: 0x100002DE0, symSize: 0x30 }
  - { offset: 0x12D61, size: 0x8, addend: 0x0, symName: __ZNSt3__122__make_exception_guardB8ne200100INS_6vectorIiNS_9allocatorIiEEE16__destroy_vectorEEENS_28__exception_guard_exceptionsIT_EES7_, symObjAddr: 0x1960, symBinAddr: 0x100002F90, symSize: 0x40 }
  - { offset: 0x12D96, size: 0x8, addend: 0x0, symName: __ZNSt3__119__allocate_at_leastB8ne200100INS_9allocatorIiEEEENS_19__allocation_resultINS_16allocator_traitsIT_E7pointerEEERS5_m, symObjAddr: 0x1C30, symBinAddr: 0x100003260, symSize: 0x40 }
  - { offset: 0x12DD9, size: 0x8, addend: 0x0, symName: __ZNSt3__117__libcpp_allocateB8ne200100IiEEPT_NS_15__element_countEm, symObjAddr: 0x1CF0, symBinAddr: 0x100003320, symSize: 0x60 }
  - { offset: 0x12E46, size: 0x8, addend: 0x0, symName: __ZNSt3__112__to_addressB8ne200100IiEEPT_S2_, symObjAddr: 0x1DA0, symBinAddr: 0x1000033D0, symSize: 0x10 }
  - { offset: 0x12E7B, size: 0x8, addend: 0x0, symName: __ZNSt3__114__construct_atB8ne200100IiJEPiEEPT_S3_DpOT0_, symObjAddr: 0x1E10, symBinAddr: 0x100003440, symSize: 0x20 }
  - { offset: 0x12EBA, size: 0x8, addend: 0x0, symName: __ZNSt3__112construct_atB8ne200100IiJEPiEEPT_S3_DpOT0_, symObjAddr: 0x1E30, symBinAddr: 0x100003460, symSize: 0x20 }
  - { offset: 0x12EF9, size: 0x8, addend: 0x0, symName: __ZNSt3__112__destroy_atB8ne200100IiTnNS_9enable_ifIXntsr8is_arrayIT_EE5valueEiE4typeELi0EEEvPS2_, symObjAddr: 0x2080, symBinAddr: 0x1000036B0, symSize: 0x10 }
  - { offset: 0x12F30, size: 0x8, addend: 0x0, symName: __ZNSt3__119__libcpp_deallocateB8ne200100IiEEvPNS_15__type_identityIT_E4typeENS_15__element_countEm, symObjAddr: 0x20C0, symBinAddr: 0x1000036F0, symSize: 0x60 }
  - { offset: 0x12FA7, size: 0x8, addend: 0x0, symName: __ZNSt3__124__libcpp_operator_deleteB8ne200100IJPimSt11align_val_tEEEvDpT_, symObjAddr: 0x2120, symBinAddr: 0x100003750, symSize: 0x30 }
  - { offset: 0x13000, size: 0x8, addend: 0x0, symName: __ZNSt3__124__libcpp_operator_deleteB8ne200100IJPimEEEvDpT_, symObjAddr: 0x2150, symBinAddr: 0x100003780, symSize: 0x30 }
  - { offset: 0x13046, size: 0x8, addend: 0x0, symName: __ZNSt3__13maxB8ne200100IiNS_6__lessIvvEEEERKT_S5_S5_T0_, symObjAddr: 0x2180, symBinAddr: 0x1000037B0, symSize: 0x50 }
  - { offset: 0x1434A, size: 0x8, addend: 0x0, symName: __ZSt28__throw_bad_array_new_lengthB8ne200100v, symObjAddr: 0x1250, symBinAddr: 0x100002880, symSize: 0x40 }
  - { offset: 0x14B7D, size: 0x8, addend: 0x0, symName: _main, symObjAddr: 0x0, symBinAddr: 0x100001630, symSize: 0x660 }
  - { offset: 0x14E3D, size: 0x8, addend: 0x0, symName: __ZNSt3__19basic_iosIcNS_11char_traitsIcEEE3tieB8ne200100EPNS_13basic_ostreamIcS2_EE, symObjAddr: 0x660, symBinAddr: 0x100001C90, symSize: 0x30 }
  - { offset: 0x151BF, size: 0x8, addend: 0x0, symName: __ZNSt3__114basic_ifstreamIcNS_11char_traitsIcEEEC1EPKcj, symObjAddr: 0x690, symBinAddr: 0x100001CC0, symSize: 0x140 }
  - { offset: 0x15224, size: 0x8, addend: 0x0, symName: __ZNSt3__114basic_ofstreamIcNS_11char_traitsIcEEEC1EPKcj, symObjAddr: 0x7D0, symBinAddr: 0x100001E00, symSize: 0x140 }
  - { offset: 0x15270, size: 0x8, addend: 0x0, symName: __ZNSt3__16vectorINS_4pairIiiEENS_9allocatorIS2_EEEC1B8ne200100Em, symObjAddr: 0x910, symBinAddr: 0x100001F40, symSize: 0x30 }
  - { offset: 0x152A8, size: 0x8, addend: 0x0, symName: __ZNSt3__16vectorINS_4pairIiiEENS_9allocatorIS2_EEE5beginB8ne200100Ev, symObjAddr: 0x940, symBinAddr: 0x100001F70, symSize: 0x40 }
  - { offset: 0x152CE, size: 0x8, addend: 0x0, symName: __ZNSt3__16vectorINS_4pairIiiEENS_9allocatorIS2_EEE3endB8ne200100Ev, symObjAddr: 0x980, symBinAddr: 0x100001FB0, symSize: 0x40 }
  - { offset: 0x152F4, size: 0x8, addend: 0x0, symName: __ZNKSt3__111__wrap_iterIPNS_4pairIiiEEEdeB8ne200100Ev, symObjAddr: 0xA00, symBinAddr: 0x100002030, symSize: 0x20 }
  - { offset: 0x1531A, size: 0x8, addend: 0x0, symName: __ZNSt3__111__wrap_iterIPNS_4pairIiiEEEppB8ne200100Ev, symObjAddr: 0xA20, symBinAddr: 0x100002050, symSize: 0x20 }
  - { offset: 0x15340, size: 0x8, addend: 0x0, symName: __ZNSt3__16vectorIiNS_9allocatorIiEEEC1B8ne200100Em, symObjAddr: 0xA40, symBinAddr: 0x100002070, symSize: 0x30 }
  - { offset: 0x15378, size: 0x8, addend: 0x0, symName: __ZNSt3__16vectorINS_4pairIiiEENS_9allocatorIS2_EEEixB8ne200100Em, symObjAddr: 0xA70, symBinAddr: 0x1000020A0, symSize: 0x20 }
  - { offset: 0x153AE, size: 0x8, addend: 0x0, symName: __ZNSt3__16vectorIiNS_9allocatorIiEEEixB8ne200100Em, symObjAddr: 0xA90, symBinAddr: 0x1000020C0, symSize: 0x20 }
  - { offset: 0x153E4, size: 0x8, addend: 0x0, symName: __ZNSt3__114basic_ifstreamIcNS_11char_traitsIcEEE5closeEv, symObjAddr: 0xAE0, symBinAddr: 0x100002110, symSize: 0x40 }
  - { offset: 0x1540C, size: 0x8, addend: 0x0, symName: __ZNSt3__114basic_ofstreamIcNS_11char_traitsIcEEE5closeEv, symObjAddr: 0xB20, symBinAddr: 0x100002150, symSize: 0x40 }
  - { offset: 0x15434, size: 0x8, addend: 0x0, symName: __ZNSt3__16vectorIiNS_9allocatorIiEEED1B8ne200100Ev, symObjAddr: 0xB60, symBinAddr: 0x100002190, symSize: 0x20 }
  - { offset: 0x1545E, size: 0x8, addend: 0x0, symName: __ZNSt3__16vectorINS_4pairIiiEENS_9allocatorIS2_EEED1B8ne200100Ev, symObjAddr: 0xB80, symBinAddr: 0x1000021B0, symSize: 0x20 }
  - { offset: 0x15488, size: 0x8, addend: 0x0, symName: __ZNSt3__114basic_ofstreamIcNS_11char_traitsIcEEED1Ev, symObjAddr: 0xBA0, symBinAddr: 0x1000021D0, symSize: 0x40 }
  - { offset: 0x154B5, size: 0x8, addend: 0x0, symName: __ZNSt3__114basic_ifstreamIcNS_11char_traitsIcEEED1Ev, symObjAddr: 0xBE0, symBinAddr: 0x100002210, symSize: 0x40 }
  - { offset: 0x154E2, size: 0x8, addend: 0x0, symName: __ZNSt3__16vectorINS_4pairIiiEENS_9allocatorIS2_EEEC2B8ne200100Em, symObjAddr: 0xC20, symBinAddr: 0x100002250, symSize: 0xB0 }
  - { offset: 0x1552E, size: 0x8, addend: 0x0, symName: __ZNSt3__19allocatorINS_4pairIiiEEEC1B8ne200100Ev, symObjAddr: 0xCD0, symBinAddr: 0x100002300, symSize: 0x20 }
  - { offset: 0x15558, size: 0x8, addend: 0x0, symName: __ZNSt3__16vectorINS_4pairIiiEENS_9allocatorIS2_EEE16__destroy_vectorC1B8ne200100ERS5_, symObjAddr: 0xD30, symBinAddr: 0x100002360, symSize: 0x30 }
  - { offset: 0x15590, size: 0x8, addend: 0x0, symName: __ZNSt3__16vectorINS_4pairIiiEENS_9allocatorIS2_EEE11__vallocateB8ne200100Em, symObjAddr: 0xD60, symBinAddr: 0x100002390, symSize: 0x80 }
  - { offset: 0x155D6, size: 0x8, addend: 0x0, symName: __ZNSt3__16vectorINS_4pairIiiEENS_9allocatorIS2_EEE18__construct_at_endEm, symObjAddr: 0xDE0, symBinAddr: 0x100002410, symSize: 0xA0 }
  - { offset: 0x1564A, size: 0x8, addend: 0x0, symName: __ZNSt3__128__exception_guard_exceptionsINS_6vectorINS_4pairIiiEENS_9allocatorIS3_EEE16__destroy_vectorEE10__completeB8ne200100Ev, symObjAddr: 0xE80, symBinAddr: 0x1000024B0, symSize: 0x20 }
  - { offset: 0x15670, size: 0x8, addend: 0x0, symName: __ZNSt3__128__exception_guard_exceptionsINS_6vectorINS_4pairIiiEENS_9allocatorIS3_EEE16__destroy_vectorEED1B8ne200100Ev, symObjAddr: 0xEA0, symBinAddr: 0x1000024D0, symSize: 0x20 }
  - { offset: 0x1569A, size: 0x8, addend: 0x0, symName: __ZNSt3__19allocatorINS_4pairIiiEEEC2B8ne200100Ev, symObjAddr: 0xEC0, symBinAddr: 0x1000024F0, symSize: 0x20 }
  - { offset: 0x156C4, size: 0x8, addend: 0x0, symName: __ZNSt3__116__non_trivial_ifILb1ENS_9allocatorINS_4pairIiiEEEEEC2B8ne200100Ev, symObjAddr: 0xEE0, symBinAddr: 0x100002510, symSize: 0x10 }
  - { offset: 0x156EE, size: 0x8, addend: 0x0, symName: __ZNSt3__128__exception_guard_exceptionsINS_6vectorINS_4pairIiiEENS_9allocatorIS3_EEE16__destroy_vectorEEC1B8ne200100ES7_, symObjAddr: 0xEF0, symBinAddr: 0x100002520, symSize: 0x30 }
  - { offset: 0x15726, size: 0x8, addend: 0x0, symName: __ZNSt3__128__exception_guard_exceptionsINS_6vectorINS_4pairIiiEENS_9allocatorIS3_EEE16__destroy_vectorEEC2B8ne200100ES7_, symObjAddr: 0xF20, symBinAddr: 0x100002550, symSize: 0x20 }
  - { offset: 0x1575E, size: 0x8, addend: 0x0, symName: __ZNSt3__16vectorINS_4pairIiiEENS_9allocatorIS2_EEE16__destroy_vectorC2B8ne200100ERS5_, symObjAddr: 0xF40, symBinAddr: 0x100002570, symSize: 0x20 }
  - { offset: 0x15796, size: 0x8, addend: 0x0, symName: __ZNKSt3__16vectorINS_4pairIiiEENS_9allocatorIS2_EEE8max_sizeB8ne200100Ev, symObjAddr: 0xF60, symBinAddr: 0x100002590, symSize: 0x50 }
  - { offset: 0x157BC, size: 0x8, addend: 0x0, symName: __ZNSt3__16vectorINS_4pairIiiEENS_9allocatorIS2_EEE20__throw_length_errorB8ne200100Ev, symObjAddr: 0xFB0, symBinAddr: 0x1000025E0, symSize: 0x10 }
  - { offset: 0x157D0, size: 0x8, addend: 0x0, symName: __ZNKSt3__16vectorINS_4pairIiiEENS_9allocatorIS2_EEE14__annotate_newB8ne200100Em, symObjAddr: 0x1000, symBinAddr: 0x100002630, symSize: 0x10 }
  - { offset: 0x15810, size: 0x8, addend: 0x0, symName: __ZNSt3__116allocator_traitsINS_9allocatorINS_4pairIiiEEEEE8max_sizeB8ne200100IS4_vTnNS_9enable_ifIXntsr14__has_max_sizeIKT_EE5valueEiE4typeELi0EEEmRKS4_, symObjAddr: 0x1040, symBinAddr: 0x100002670, symSize: 0x20 }
  - { offset: 0x15841, size: 0x8, addend: 0x0, symName: __ZNSt3__114numeric_limitsIlE3maxB8ne200100Ev, symObjAddr: 0x1060, symBinAddr: 0x100002690, symSize: 0x10 }
  - { offset: 0x15869, size: 0x8, addend: 0x0, symName: __ZNKSt3__16__lessIvvEclB8ne200100ImmEEbRKT_RKT0_, symObjAddr: 0x10D0, symBinAddr: 0x100002700, symSize: 0x30 }
  - { offset: 0x158BD, size: 0x8, addend: 0x0, symName: __ZNSt3__114numeric_limitsImE3maxB8ne200100Ev, symObjAddr: 0x1100, symBinAddr: 0x100002730, symSize: 0x10 }
  - { offset: 0x158D1, size: 0x8, addend: 0x0, symName: __ZNSt3__123__libcpp_numeric_limitsImLb1EE3maxB8ne200100Ev, symObjAddr: 0x1110, symBinAddr: 0x100002740, symSize: 0x10 }
  - { offset: 0x158E5, size: 0x8, addend: 0x0, symName: __ZNSt3__123__libcpp_numeric_limitsIlLb1EE3maxB8ne200100Ev, symObjAddr: 0x1120, symBinAddr: 0x100002750, symSize: 0x10 }
  - { offset: 0x158F9, size: 0x8, addend: 0x0, symName: __ZNSt12length_errorC1B8ne200100EPKc, symObjAddr: 0x1190, symBinAddr: 0x1000027C0, symSize: 0x30 }
  - { offset: 0x15931, size: 0x8, addend: 0x0, symName: __ZNSt12length_errorC2B8ne200100EPKc, symObjAddr: 0x11C0, symBinAddr: 0x1000027F0, symSize: 0x40 }
  - { offset: 0x15969, size: 0x8, addend: 0x0, symName: __ZNSt3__19allocatorINS_4pairIiiEEE8allocateB8ne200100Em, symObjAddr: 0x1200, symBinAddr: 0x100002830, symSize: 0x50 }
  - { offset: 0x159B6, size: 0x8, addend: 0x0, symName: __ZNSt3__16vectorINS_4pairIiiEENS_9allocatorIS2_EEE21_ConstructTransactionC1B8ne200100ERS5_m, symObjAddr: 0x1360, symBinAddr: 0x100002990, symSize: 0x30 }
  - { offset: 0x15A00, size: 0x8, addend: 0x0, symName: __ZNSt3__116allocator_traitsINS_9allocatorINS_4pairIiiEEEEE9constructB8ne200100IS3_JEvTnNS_9enable_ifIXntsr15__has_constructIS4_PT_DpT0_EE5valueEiE4typeELi0EEEvRS4_S9_DpOSA_, symObjAddr: 0x1390, symBinAddr: 0x1000029C0, symSize: 0x20 }
  - { offset: 0x15A46, size: 0x8, addend: 0x0, symName: __ZNSt3__16vectorINS_4pairIiiEENS_9allocatorIS2_EEE21_ConstructTransactionD1B8ne200100Ev, symObjAddr: 0x13C0, symBinAddr: 0x1000029F0, symSize: 0x20 }
  - { offset: 0x15A70, size: 0x8, addend: 0x0, symName: __ZNSt3__16vectorINS_4pairIiiEENS_9allocatorIS2_EEE21_ConstructTransactionC2B8ne200100ERS5_m, symObjAddr: 0x13E0, symBinAddr: 0x100002A10, symSize: 0x40 }
  - { offset: 0x15ABA, size: 0x8, addend: 0x0, symName: __ZNSt3__14pairIiiEC1B8ne200100ILb1ETnNS_9enable_ifIXclsr13_CheckArgsDepIXT_EEE16__enable_defaultEEiE4typeELi0EEEv, symObjAddr: 0x1470, symBinAddr: 0x100002AA0, symSize: 0x20 }
  - { offset: 0x15AF4, size: 0x8, addend: 0x0, symName: __ZNSt3__14pairIiiEC2B8ne200100ILb1ETnNS_9enable_ifIXclsr13_CheckArgsDepIXT_EEE16__enable_defaultEEiE4typeELi0EEEv, symObjAddr: 0x1490, symBinAddr: 0x100002AC0, symSize: 0x20 }
  - { offset: 0x15B2E, size: 0x8, addend: 0x0, symName: __ZNSt3__16vectorINS_4pairIiiEENS_9allocatorIS2_EEE21_ConstructTransactionD2B8ne200100Ev, symObjAddr: 0x14B0, symBinAddr: 0x100002AE0, symSize: 0x20 }
  - { offset: 0x15B58, size: 0x8, addend: 0x0, symName: __ZNSt3__128__exception_guard_exceptionsINS_6vectorINS_4pairIiiEENS_9allocatorIS3_EEE16__destroy_vectorEED2B8ne200100Ev, symObjAddr: 0x14D0, symBinAddr: 0x100002B00, symSize: 0x40 }
  - { offset: 0x15B82, size: 0x8, addend: 0x0, symName: __ZNSt3__16vectorINS_4pairIiiEENS_9allocatorIS2_EEE16__destroy_vectorclB8ne200100Ev, symObjAddr: 0x1510, symBinAddr: 0x100002B40, symSize: 0x70 }
  - { offset: 0x15BA8, size: 0x8, addend: 0x0, symName: __ZNSt3__16vectorINS_4pairIiiEENS_9allocatorIS2_EEE5clearB8ne200100Ev, symObjAddr: 0x1580, symBinAddr: 0x100002BB0, symSize: 0x40 }
  - { offset: 0x15BDE, size: 0x8, addend: 0x0, symName: __ZNKSt3__16vectorINS_4pairIiiEENS_9allocatorIS2_EEE17__annotate_deleteB8ne200100Ev, symObjAddr: 0x15C0, symBinAddr: 0x100002BF0, symSize: 0x10 }
  - { offset: 0x15C04, size: 0x8, addend: 0x0, symName: __ZNSt3__116allocator_traitsINS_9allocatorINS_4pairIiiEEEEE10deallocateB8ne200100ERS4_PS3_m, symObjAddr: 0x15D0, symBinAddr: 0x100002C00, symSize: 0x30 }
  - { offset: 0x15C49, size: 0x8, addend: 0x0, symName: __ZNKSt3__16vectorINS_4pairIiiEENS_9allocatorIS2_EEE8capacityB8ne200100Ev, symObjAddr: 0x1600, symBinAddr: 0x100002C30, symSize: 0x20 }
  - { offset: 0x15C6F, size: 0x8, addend: 0x0, symName: __ZNKSt3__16vectorINS_4pairIiiEENS_9allocatorIS2_EEE4sizeB8ne200100Ev, symObjAddr: 0x1620, symBinAddr: 0x100002C50, symSize: 0x20 }
  - { offset: 0x15C95, size: 0x8, addend: 0x0, symName: __ZNSt3__16vectorINS_4pairIiiEENS_9allocatorIS2_EEE22__base_destruct_at_endB8ne200100EPS2_, symObjAddr: 0x1640, symBinAddr: 0x100002C70, symSize: 0x70 }
  - { offset: 0x15CDB, size: 0x8, addend: 0x0, symName: __ZNKSt3__16vectorINS_4pairIiiEENS_9allocatorIS2_EEE17__annotate_shrinkB8ne200100Em, symObjAddr: 0x16B0, symBinAddr: 0x100002CE0, symSize: 0x10 }
  - { offset: 0x15D11, size: 0x8, addend: 0x0, symName: __ZNSt3__116allocator_traitsINS_9allocatorINS_4pairIiiEEEEE7destroyB8ne200100IS3_vTnNS_9enable_ifIXntsr13__has_destroyIS4_PT_EE5valueEiE4typeELi0EEEvRS4_S9_, symObjAddr: 0x16C0, symBinAddr: 0x100002CF0, symSize: 0x20 }
  - { offset: 0x15D52, size: 0x8, addend: 0x0, symName: __ZNSt3__19allocatorINS_4pairIiiEEE10deallocateB8ne200100EPS2_m, symObjAddr: 0x16F0, symBinAddr: 0x100002D20, symSize: 0x30 }
  - { offset: 0x15D94, size: 0x8, addend: 0x0, symName: __ZNSt3__16vectorINS_4pairIiiEENS_9allocatorIS2_EEE11__make_iterB8ne200100EPS2_, symObjAddr: 0x17E0, symBinAddr: 0x100002E10, symSize: 0x30 }
  - { offset: 0x15DCA, size: 0x8, addend: 0x0, symName: __ZNSt3__16vectorINS_4pairIiiEENS_9allocatorIS2_EEE26__add_alignment_assumptionB8ne200100IPS2_TnNS_9enable_ifIXsr10is_pointerIT_EE5valueEiE4typeELi0EEES7_S9_, symObjAddr: 0x1810, symBinAddr: 0x100002E40, symSize: 0x10 }
  - { offset: 0x15DFE, size: 0x8, addend: 0x0, symName: __ZNSt3__111__wrap_iterIPNS_4pairIiiEEEC1B8ne200100ES3_, symObjAddr: 0x1820, symBinAddr: 0x100002E50, symSize: 0x30 }
  - { offset: 0x15E36, size: 0x8, addend: 0x0, symName: __ZNSt3__111__wrap_iterIPNS_4pairIiiEEEC2B8ne200100ES3_, symObjAddr: 0x1850, symBinAddr: 0x100002E80, symSize: 0x20 }
  - { offset: 0x15E6E, size: 0x8, addend: 0x0, symName: __ZNKSt3__111__wrap_iterIPNS_4pairIiiEEE4baseB8ne200100Ev, symObjAddr: 0x1870, symBinAddr: 0x100002EA0, symSize: 0x20 }
  - { offset: 0x15E94, size: 0x8, addend: 0x0, symName: __ZNSt3__16vectorIiNS_9allocatorIiEEEC2B8ne200100Em, symObjAddr: 0x1890, symBinAddr: 0x100002EC0, symSize: 0xB0 }
  - { offset: 0x15EE0, size: 0x8, addend: 0x0, symName: __ZNSt3__19allocatorIiEC1B8ne200100Ev, symObjAddr: 0x1940, symBinAddr: 0x100002F70, symSize: 0x20 }
  - { offset: 0x15F0A, size: 0x8, addend: 0x0, symName: __ZNSt3__16vectorIiNS_9allocatorIiEEE16__destroy_vectorC1B8ne200100ERS3_, symObjAddr: 0x19A0, symBinAddr: 0x100002FD0, symSize: 0x30 }
  - { offset: 0x15F42, size: 0x8, addend: 0x0, symName: __ZNSt3__16vectorIiNS_9allocatorIiEEE11__vallocateB8ne200100Em, symObjAddr: 0x19D0, symBinAddr: 0x100003000, symSize: 0x80 }
  - { offset: 0x15F88, size: 0x8, addend: 0x0, symName: __ZNSt3__16vectorIiNS_9allocatorIiEEE18__construct_at_endEm, symObjAddr: 0x1A50, symBinAddr: 0x100003080, symSize: 0xA0 }
  - { offset: 0x15FFC, size: 0x8, addend: 0x0, symName: __ZNSt3__128__exception_guard_exceptionsINS_6vectorIiNS_9allocatorIiEEE16__destroy_vectorEE10__completeB8ne200100Ev, symObjAddr: 0x1AF0, symBinAddr: 0x100003120, symSize: 0x20 }
  - { offset: 0x16022, size: 0x8, addend: 0x0, symName: __ZNSt3__128__exception_guard_exceptionsINS_6vectorIiNS_9allocatorIiEEE16__destroy_vectorEED1B8ne200100Ev, symObjAddr: 0x1B10, symBinAddr: 0x100003140, symSize: 0x20 }
  - { offset: 0x1604C, size: 0x8, addend: 0x0, symName: __ZNSt3__19allocatorIiEC2B8ne200100Ev, symObjAddr: 0x1B30, symBinAddr: 0x100003160, symSize: 0x20 }
  - { offset: 0x16076, size: 0x8, addend: 0x0, symName: __ZNSt3__116__non_trivial_ifILb1ENS_9allocatorIiEEEC2B8ne200100Ev, symObjAddr: 0x1B50, symBinAddr: 0x100003180, symSize: 0x10 }
  - { offset: 0x160A0, size: 0x8, addend: 0x0, symName: __ZNSt3__128__exception_guard_exceptionsINS_6vectorIiNS_9allocatorIiEEE16__destroy_vectorEEC1B8ne200100ES5_, symObjAddr: 0x1B60, symBinAddr: 0x100003190, symSize: 0x30 }
  - { offset: 0x160D8, size: 0x8, addend: 0x0, symName: __ZNSt3__128__exception_guard_exceptionsINS_6vectorIiNS_9allocatorIiEEE16__destroy_vectorEEC2B8ne200100ES5_, symObjAddr: 0x1B90, symBinAddr: 0x1000031C0, symSize: 0x20 }
  - { offset: 0x16110, size: 0x8, addend: 0x0, symName: __ZNSt3__16vectorIiNS_9allocatorIiEEE16__destroy_vectorC2B8ne200100ERS3_, symObjAddr: 0x1BB0, symBinAddr: 0x1000031E0, symSize: 0x20 }
  - { offset: 0x16148, size: 0x8, addend: 0x0, symName: __ZNKSt3__16vectorIiNS_9allocatorIiEEE8max_sizeB8ne200100Ev, symObjAddr: 0x1BD0, symBinAddr: 0x100003200, symSize: 0x50 }
  - { offset: 0x1616E, size: 0x8, addend: 0x0, symName: __ZNSt3__16vectorIiNS_9allocatorIiEEE20__throw_length_errorB8ne200100Ev, symObjAddr: 0x1C20, symBinAddr: 0x100003250, symSize: 0x10 }
  - { offset: 0x16182, size: 0x8, addend: 0x0, symName: __ZNKSt3__16vectorIiNS_9allocatorIiEEE14__annotate_newB8ne200100Em, symObjAddr: 0x1C70, symBinAddr: 0x1000032A0, symSize: 0x10 }
  - { offset: 0x161C2, size: 0x8, addend: 0x0, symName: __ZNSt3__116allocator_traitsINS_9allocatorIiEEE8max_sizeB8ne200100IS2_vTnNS_9enable_ifIXntsr14__has_max_sizeIKT_EE5valueEiE4typeELi0EEEmRKS2_, symObjAddr: 0x1C80, symBinAddr: 0x1000032B0, symSize: 0x20 }
  - { offset: 0x161F3, size: 0x8, addend: 0x0, symName: __ZNSt3__19allocatorIiE8allocateB8ne200100Em, symObjAddr: 0x1CA0, symBinAddr: 0x1000032D0, symSize: 0x50 }
  - { offset: 0x16240, size: 0x8, addend: 0x0, symName: __ZNSt3__16vectorIiNS_9allocatorIiEEE21_ConstructTransactionC1B8ne200100ERS3_m, symObjAddr: 0x1D50, symBinAddr: 0x100003380, symSize: 0x30 }
  - { offset: 0x1628A, size: 0x8, addend: 0x0, symName: __ZNSt3__116allocator_traitsINS_9allocatorIiEEE9constructB8ne200100IiJEvTnNS_9enable_ifIXntsr15__has_constructIS2_PT_DpT0_EE5valueEiE4typeELi0EEEvRS2_S7_DpOS8_, symObjAddr: 0x1D80, symBinAddr: 0x1000033B0, symSize: 0x20 }
  - { offset: 0x162D0, size: 0x8, addend: 0x0, symName: __ZNSt3__16vectorIiNS_9allocatorIiEEE21_ConstructTransactionD1B8ne200100Ev, symObjAddr: 0x1DB0, symBinAddr: 0x1000033E0, symSize: 0x20 }
  - { offset: 0x162FA, size: 0x8, addend: 0x0, symName: __ZNSt3__16vectorIiNS_9allocatorIiEEE21_ConstructTransactionC2B8ne200100ERS3_m, symObjAddr: 0x1DD0, symBinAddr: 0x100003400, symSize: 0x40 }
  - { offset: 0x16344, size: 0x8, addend: 0x0, symName: __ZNSt3__16vectorIiNS_9allocatorIiEEE21_ConstructTransactionD2B8ne200100Ev, symObjAddr: 0x1E50, symBinAddr: 0x100003480, symSize: 0x20 }
  - { offset: 0x1636E, size: 0x8, addend: 0x0, symName: __ZNSt3__128__exception_guard_exceptionsINS_6vectorIiNS_9allocatorIiEEE16__destroy_vectorEED2B8ne200100Ev, symObjAddr: 0x1E70, symBinAddr: 0x1000034A0, symSize: 0x40 }
  - { offset: 0x16398, size: 0x8, addend: 0x0, symName: __ZNSt3__16vectorIiNS_9allocatorIiEEE16__destroy_vectorclB8ne200100Ev, symObjAddr: 0x1EB0, symBinAddr: 0x1000034E0, symSize: 0x70 }
  - { offset: 0x163BE, size: 0x8, addend: 0x0, symName: __ZNSt3__16vectorIiNS_9allocatorIiEEE5clearB8ne200100Ev, symObjAddr: 0x1F20, symBinAddr: 0x100003550, symSize: 0x40 }
  - { offset: 0x163F4, size: 0x8, addend: 0x0, symName: __ZNKSt3__16vectorIiNS_9allocatorIiEEE17__annotate_deleteB8ne200100Ev, symObjAddr: 0x1F60, symBinAddr: 0x100003590, symSize: 0x10 }
  - { offset: 0x1641A, size: 0x8, addend: 0x0, symName: __ZNSt3__116allocator_traitsINS_9allocatorIiEEE10deallocateB8ne200100ERS2_Pim, symObjAddr: 0x1F70, symBinAddr: 0x1000035A0, symSize: 0x30 }
  - { offset: 0x1645F, size: 0x8, addend: 0x0, symName: __ZNKSt3__16vectorIiNS_9allocatorIiEEE8capacityB8ne200100Ev, symObjAddr: 0x1FA0, symBinAddr: 0x1000035D0, symSize: 0x20 }
  - { offset: 0x16485, size: 0x8, addend: 0x0, symName: __ZNKSt3__16vectorIiNS_9allocatorIiEEE4sizeB8ne200100Ev, symObjAddr: 0x1FC0, symBinAddr: 0x1000035F0, symSize: 0x20 }
  - { offset: 0x164AB, size: 0x8, addend: 0x0, symName: __ZNSt3__16vectorIiNS_9allocatorIiEEE22__base_destruct_at_endB8ne200100EPi, symObjAddr: 0x1FE0, symBinAddr: 0x100003610, symSize: 0x70 }
  - { offset: 0x164F1, size: 0x8, addend: 0x0, symName: __ZNKSt3__16vectorIiNS_9allocatorIiEEE17__annotate_shrinkB8ne200100Em, symObjAddr: 0x2050, symBinAddr: 0x100003680, symSize: 0x10 }
  - { offset: 0x16527, size: 0x8, addend: 0x0, symName: __ZNSt3__116allocator_traitsINS_9allocatorIiEEE7destroyB8ne200100IivTnNS_9enable_ifIXntsr13__has_destroyIS2_PT_EE5valueEiE4typeELi0EEEvRS2_S7_, symObjAddr: 0x2060, symBinAddr: 0x100003690, symSize: 0x20 }
  - { offset: 0x16568, size: 0x8, addend: 0x0, symName: __ZNSt3__19allocatorIiE10deallocateB8ne200100EPim, symObjAddr: 0x2090, symBinAddr: 0x1000036C0, symSize: 0x30 }
  - { offset: 0x165AF, size: 0x8, addend: 0x0, symName: __ZNKSt3__16__lessIvvEclB8ne200100IiiEEbRKT_RKT0_, symObjAddr: 0x21D0, symBinAddr: 0x100003800, symSize: 0x30 }
  - { offset: 0x16603, size: 0x8, addend: 0x0, symName: __ZNSt3__16vectorIiNS_9allocatorIiEEED2B8ne200100Ev, symObjAddr: 0x2200, symBinAddr: 0x100003830, symSize: 0x40 }
  - { offset: 0x1662D, size: 0x8, addend: 0x0, symName: __ZNSt3__16vectorINS_4pairIiiEENS_9allocatorIS2_EEED2B8ne200100Ev, symObjAddr: 0x2240, symBinAddr: 0x100003870, symSize: 0x40 }
  - { offset: 0x16657, size: 0x8, addend: 0x0, symName: __ZNSt3__114basic_ofstreamIcNS_11char_traitsIcEEED2Ev, symObjAddr: 0x2280, symBinAddr: 0x1000038B0, symSize: 0x60 }
  - { offset: 0x16691, size: 0x8, addend: 0x0, symName: __ZTv0_n24_NSt3__114basic_ofstreamIcNS_11char_traitsIcEEED1Ev, symObjAddr: 0x22E0, symBinAddr: 0x100003910, symSize: 0x20 }
  - { offset: 0x166A8, size: 0x8, addend: 0x0, symName: __ZNSt3__114basic_ifstreamIcNS_11char_traitsIcEEED2Ev, symObjAddr: 0x2300, symBinAddr: 0x100003930, symSize: 0x60 }
  - { offset: 0x166E2, size: 0x8, addend: 0x0, symName: __ZTv0_n24_NSt3__114basic_ifstreamIcNS_11char_traitsIcEEED1Ev, symObjAddr: 0x2360, symBinAddr: 0x100003990, symSize: 0x20 }
  - { offset: 0x166F9, size: 0x8, addend: 0x0, symName: __ZNSt3__19basic_iosIcNS_11char_traitsIcEEEC2B8ne200100Ev, symObjAddr: 0x2380, symBinAddr: 0x1000039B0, symSize: 0x40 }
  - { offset: 0x16723, size: 0x8, addend: 0x0, symName: __ZNSt3__113basic_istreamIcNS_11char_traitsIcEEEC2B8ne200100EPNS_15basic_streambufIcS2_EE, symObjAddr: 0x23C0, symBinAddr: 0x1000039F0, symSize: 0x50 }
  - { offset: 0x16768, size: 0x8, addend: 0x0, symName: __ZNSt3__19basic_iosIcNS_11char_traitsIcEEE8setstateB8ne200100Ej, symObjAddr: 0x2410, symBinAddr: 0x100003A40, symSize: 0x30 }
  - { offset: 0x1679E, size: 0x8, addend: 0x0, symName: __ZNSt3__18ios_baseC2B8ne200100Ev, symObjAddr: 0x2440, symBinAddr: 0x100003A70, symSize: 0x30 }
  - { offset: 0x167C8, size: 0x8, addend: 0x0, symName: __ZNSt3__19basic_iosIcNS_11char_traitsIcEEE4initB8ne200100EPNS_15basic_streambufIcS2_EE, symObjAddr: 0x2470, symBinAddr: 0x100003AA0, symSize: 0x50 }
  - { offset: 0x16800, size: 0x8, addend: 0x0, symName: __ZNSt3__118_SentinelValueFillINS_11char_traitsIcEEE6__initB8ne200100Ev, symObjAddr: 0x24C0, symBinAddr: 0x100003AF0, symSize: 0x30 }
  - { offset: 0x16826, size: 0x8, addend: 0x0, symName: __ZNSt3__111char_traitsIcE3eofB8ne200100Ev, symObjAddr: 0x24F0, symBinAddr: 0x100003B20, symSize: 0x10 }
  - { offset: 0x1683A, size: 0x8, addend: 0x0, symName: __ZNSt3__18ios_base8setstateB8ne200100Ej, symObjAddr: 0x2500, symBinAddr: 0x100003B30, symSize: 0x30 }
  - { offset: 0x16872, size: 0x8, addend: 0x0, symName: __ZNSt3__113basic_ostreamIcNS_11char_traitsIcEEEC2B8ne200100EPNS_15basic_streambufIcS2_EE, symObjAddr: 0x2530, symBinAddr: 0x100003B60, symSize: 0x47 }
...
