---
triple:          'x86_64-apple-darwin'
binary-path:     '/Users/aarush_mac/Documents/Programming/Cpp/Competitive-Programming/Usaco/Silver/GoodSubArrays'
relocations:
  - { offset: 0x5C, size: 0x8, addend: 0x0, symName: __ZNSt3__119piecewise_constructE, symObjAddr: 0x459F, symBinAddr: 0x100007E1F, symSize: 0x0 }
  - { offset: 0x3055, size: 0x8, addend: 0x0, symName: __ZNSt3__1rsB8ne210108IcNS_11char_traitsIcEENS_9allocatorIcEEEERNS_13basic_istreamIT_T0_EES9_RNS_12basic_stringIS6_S7_T1_EE, symObjAddr: 0x430, symBinAddr: 0x100003A90, symSize: 0x2E0 }
  - { offset: 0x6D8E, size: 0x8, addend: 0x0, symName: __ZNSt3__124__put_character_sequenceB8ne210108IcNS_11char_traitsIcEEEERNS_13basic_ostreamIT_T0_EES7_PKS4_m, symObjAddr: 0x3CD0, symBinAddr: 0x100007330, symSize: 0x1B0 }
  - { offset: 0x7BA9, size: 0x8, addend: 0x0, symName: __ZNSt3__1neB8ne210108ERKNS_14__map_iteratorINS_15__tree_iteratorINS_12__value_typeIxiEEPNS_11__tree_nodeIS3_PvEElEEEESB_, symObjAddr: 0x920, symBinAddr: 0x100003F80, symSize: 0x30 }
  - { offset: 0x7BE6, size: 0x8, addend: 0x0, symName: __ZNSt3__1lsB8ne210108INS_11char_traitsIcEEEERNS_13basic_ostreamIcT_EES6_c, symObjAddr: 0x9A0, symBinAddr: 0x100004000, symSize: 0x30 }
  - { offset: 0x7C2C, size: 0x8, addend: 0x0, symName: __ZNSt3__112__to_addressB8ne210108IKcEEPT_S3_, symObjAddr: 0xBF0, symBinAddr: 0x100004250, symSize: 0x10 }
  - { offset: 0x823A, size: 0x8, addend: 0x0, symName: __ZNSt3__118__to_unsigned_likeB8ne210108IlEEu15__make_unsignedIT_ES1_, symObjAddr: 0xE60, symBinAddr: 0x1000044C0, symSize: 0x10 }
  - { offset: 0x826F, size: 0x8, addend: 0x0, symName: __ZNSt3__19use_facetB8ne210108INS_5ctypeIcEEEERKT_RKNS_6localeE, symObjAddr: 0xE70, symBinAddr: 0x1000044D0, symSize: 0x30 }
  - { offset: 0x886C, size: 0x8, addend: 0x0, symName: __ZNSt3__116__libcpp_isasciiB8ne210108Ei, symObjAddr: 0x1380, symBinAddr: 0x1000049E0, symSize: 0x20 }
  - { offset: 0x889A, size: 0x8, addend: 0x0, symName: __ZNSt3__122__make_exception_guardB8ne210108INS_6vectorIxNS_9allocatorIxEEE16__destroy_vectorEEENS_28__exception_guard_exceptionsIT_EES7_, symObjAddr: 0x1500, symBinAddr: 0x100004B60, symSize: 0x40 }
  - { offset: 0x88CF, size: 0x8, addend: 0x0, symName: __ZNSt3__119__allocate_at_leastB8ne210108INS_9allocatorIxEEEENS_19__allocation_resultINS_16allocator_traitsIT_E7pointerEEERS5_m, symObjAddr: 0x17F0, symBinAddr: 0x100004E50, symSize: 0x40 }
  - { offset: 0x8912, size: 0x8, addend: 0x0, symName: __ZNSt3__13minB8ne210108ImEERKT_S3_S3_, symObjAddr: 0x18A0, symBinAddr: 0x100004F00, symSize: 0x30 }
  - { offset: 0x8B3F, size: 0x8, addend: 0x0, symName: __ZNSt3__13minB8ne210108ImNS_6__lessIvvEEEERKT_S5_S5_T0_, symObjAddr: 0x1900, symBinAddr: 0x100004F60, symSize: 0x50 }
  - { offset: 0x8BDE, size: 0x8, addend: 0x0, symName: __ZNSt3__120__throw_length_errorB8ne210108EPKc, symObjAddr: 0x19B0, symBinAddr: 0x100005010, symSize: 0x60 }
  - { offset: 0x8C06, size: 0x8, addend: 0x0, symName: __ZNSt3__117__libcpp_allocateB8ne210108IxEEPT_NS_15__element_countEm, symObjAddr: 0x1B10, symBinAddr: 0x100005170, symSize: 0x60 }
  - { offset: 0x8C57, size: 0x8, addend: 0x0, symName: __ZNSt3__124__is_overaligned_for_newB8ne210108Em, symObjAddr: 0x1B70, symBinAddr: 0x1000051D0, symSize: 0x20 }
  - { offset: 0x8C83, size: 0x8, addend: 0x0, symName: __ZNSt3__131__annotate_contiguous_containerB8ne210108INS_9allocatorIxEEEEvPKvS4_S4_S4_, symObjAddr: 0x1C30, symBinAddr: 0x100005290, symSize: 0x20 }
  - { offset: 0x8CDE, size: 0x8, addend: 0x0, symName: __ZNSt3__112__to_addressB8ne210108IxEEPT_S2_, symObjAddr: 0x1C50, symBinAddr: 0x1000052B0, symSize: 0x10 }
  - { offset: 0x8D13, size: 0x8, addend: 0x0, symName: __ZNSt3__119__libcpp_deallocateB8ne210108IxEEvPNS_15__type_identityIT_E4typeENS_15__element_countEm, symObjAddr: 0x2150, symBinAddr: 0x1000057B0, symSize: 0x60 }
  - { offset: 0x8DA1, size: 0x8, addend: 0x0, symName: __ZNSt3__112__destroy_atB8ne210108INS_4pairIKxiEETnNS_9enable_ifIXntsr8is_arrayIT_EE5valueEiE4typeELi0EEEvPS5_, symObjAddr: 0x25A0, symBinAddr: 0x100005C00, symSize: 0x10 }
  - { offset: 0x8DD8, size: 0x8, addend: 0x0, symName: __ZNSt3__119__libcpp_deallocateB8ne210108INS_11__tree_nodeINS_12__value_typeIxiEEPvEEEEvPNS_15__type_identityIT_E4typeENS_15__element_countEm, symObjAddr: 0x25E0, symBinAddr: 0x100005C40, symSize: 0x60 }
  - { offset: 0x8E6A, size: 0x8, addend: 0x0, symName: __ZNSt3__116forward_as_tupleB8ne210108IJRKxEEENS_5tupleIJDpOT_EEES6_, symObjAddr: 0x2760, symBinAddr: 0x100005DC0, symSize: 0x30 }
  - { offset: 0x8EA3, size: 0x8, addend: 0x0, symName: __ZNSt3__116forward_as_tupleB8ne210108IJEEENS_5tupleIJDpOT_EEES4_, symObjAddr: 0x2790, symBinAddr: 0x100005DF0, symSize: 0x10 }
  - { offset: 0x8EE5, size: 0x8, addend: 0x0, symName: __ZNSt3__117__libcpp_allocateB8ne210108INS_11__tree_nodeINS_12__value_typeIxiEEPvEEEEPT_NS_15__element_countEm, symObjAddr: 0x2DE0, symBinAddr: 0x100006440, symSize: 0x60 }
  - { offset: 0x8F41, size: 0x8, addend: 0x0, symName: __ZNSt3__13getB8ne210108ILm0EJRKxEEERNS_13tuple_elementIXT_ENS_5tupleIJDpT0_EEEE4typeERS7_, symObjAddr: 0x3030, symBinAddr: 0x100006690, symSize: 0x20 }
  - { offset: 0x8F84, size: 0x8, addend: 0x0, symName: __ZNSt3__127__tree_balance_after_insertB8ne210108IPNS_16__tree_node_baseIPvEEEEvT_S5_, symObjAddr: 0x3070, symBinAddr: 0x1000066D0, symSize: 0x2C0 }
  - { offset: 0x9000, size: 0x8, addend: 0x0, symName: __ZNSt3__120__tree_is_left_childB8ne210108IPNS_16__tree_node_baseIPvEEEEbT_, symObjAddr: 0x3370, symBinAddr: 0x1000069D0, symSize: 0x20 }
  - { offset: 0x9035, size: 0x8, addend: 0x0, symName: __ZNSt3__118__tree_left_rotateB8ne210108IPNS_16__tree_node_baseIPvEEEEvT_, symObjAddr: 0x3390, symBinAddr: 0x1000069F0, symSize: 0xC0 }
  - { offset: 0x9074, size: 0x8, addend: 0x0, symName: __ZNSt3__119__tree_right_rotateB8ne210108IPNS_16__tree_node_baseIPvEEEEvT_, symObjAddr: 0x3450, symBinAddr: 0x100006AB0, symSize: 0xB0 }
  - { offset: 0x9113, size: 0x8, addend: 0x0, symName: __ZNSt3__1neB8ne210108ERKNS_15__tree_iteratorINS_12__value_typeIxiEEPNS_11__tree_nodeIS2_PvEElEES9_, symObjAddr: 0x3B80, symBinAddr: 0x1000071E0, symSize: 0x30 }
  - { offset: 0x9150, size: 0x8, addend: 0x0, symName: __ZNSt3__1eqB8ne210108ERKNS_15__tree_iteratorINS_12__value_typeIxiEEPNS_11__tree_nodeIS2_PvEElEES9_, symObjAddr: 0x3BB0, symBinAddr: 0x100007210, symSize: 0x30 }
  - { offset: 0x918D, size: 0x8, addend: 0x0, symName: __ZNSt3__116__tree_next_iterB8ne210108IPNS_15__tree_end_nodeIPNS_16__tree_node_baseIPvEEEES5_EET_T0_, symObjAddr: 0x3C10, symBinAddr: 0x100007270, symSize: 0x70 }
  - { offset: 0x91CB, size: 0x8, addend: 0x0, symName: __ZNSt3__110__tree_minB8ne210108IPNS_16__tree_node_baseIPvEEEET_S5_, symObjAddr: 0x3C80, symBinAddr: 0x1000072E0, symSize: 0x30 }
  - { offset: 0x9200, size: 0x8, addend: 0x0, symName: __ZNSt3__116__pad_and_outputB8ne210108IcNS_11char_traitsIcEEEENS_19ostreambuf_iteratorIT_T0_EES6_PKS4_S8_S8_RNS_8ios_baseES4_, symObjAddr: 0x3EA0, symBinAddr: 0x100007500, symSize: 0x1E0 }
  - { offset: 0x92C5, size: 0x8, addend: 0x0, symName: __ZNSt3__112__to_addressB8ne210108IcEEPT_S2_, symObjAddr: 0x4220, symBinAddr: 0x100007880, symSize: 0x10 }
  - { offset: 0xA217, size: 0x8, addend: 0x0, symName: __ZSt28__throw_bad_array_new_lengthB8ne210108v, symObjAddr: 0x1AD0, symBinAddr: 0x100005130, symSize: 0x40 }
  - { offset: 0xAA78, size: 0x8, addend: 0x0, symName: _main, symObjAddr: 0x0, symBinAddr: 0x100003660, symSize: 0x3E0 }
  - { offset: 0xABBA, size: 0x8, addend: 0x0, symName: __ZNSt3__19basic_iosIcNS_11char_traitsIcEEE3tieB8ne210108EPNS_13basic_ostreamIcS2_EE, symObjAddr: 0x3E0, symBinAddr: 0x100003A40, symSize: 0x30 }
  - { offset: 0xABFE, size: 0x8, addend: 0x0, symName: __ZNSt3__112basic_stringIcNS_11char_traitsIcEENS_9allocatorIcEEEC1B8ne210108Ev, symObjAddr: 0x410, symBinAddr: 0x100003A70, symSize: 0x20 }
  - { offset: 0xAC28, size: 0x8, addend: 0x0, symName: __ZNSt3__16vectorIxNS_9allocatorIxEEEC1B8ne210108Em, symObjAddr: 0x710, symBinAddr: 0x100003D70, symSize: 0x30 }
  - { offset: 0xAC60, size: 0x8, addend: 0x0, symName: __ZNSt3__16vectorIxNS_9allocatorIxEEEixB8ne210108Em, symObjAddr: 0x740, symBinAddr: 0x100003DA0, symSize: 0x20 }
  - { offset: 0xAC95, size: 0x8, addend: 0x0, symName: __ZNSt3__112basic_stringIcNS_11char_traitsIcEENS_9allocatorIcEEEixB8ne210108Em, symObjAddr: 0x760, symBinAddr: 0x100003DC0, symSize: 0x40 }
  - { offset: 0xACCA, size: 0x8, addend: 0x0, symName: __ZNSt3__13mapIxiNS_4lessIxEENS_9allocatorINS_4pairIKxiEEEEEC1B8ne210108Ev, symObjAddr: 0x7A0, symBinAddr: 0x100003E00, symSize: 0x20 }
  - { offset: 0xACF4, size: 0x8, addend: 0x0, symName: __ZNSt3__13mapIxiNS_4lessIxEENS_9allocatorINS_4pairIKxiEEEEE6insertB8ne210108EOS6_, symObjAddr: 0x7C0, symBinAddr: 0x100003E20, symSize: 0x50 }
  - { offset: 0xAD29, size: 0x8, addend: 0x0, symName: __ZNSt3__13mapIxiNS_4lessIxEENS_9allocatorINS_4pairIKxiEEEEEixERS5_, symObjAddr: 0x810, symBinAddr: 0x100003E70, symSize: 0x80 }
  - { offset: 0xAD65, size: 0x8, addend: 0x0, symName: __ZNSt3__14pairIKxiEC1B8ne210108IRxRiTnNS_9enable_ifIXclsr25__check_pair_constructionIS1_iEE23__is_pair_constructibleIT_T0_EEEiE4typeELi0EEEOS7_OS8_, symObjAddr: 0x890, symBinAddr: 0x100003EF0, symSize: 0x30 }
  - { offset: 0xADC3, size: 0x8, addend: 0x0, symName: __ZNSt3__13mapIxiNS_4lessIxEENS_9allocatorINS_4pairIKxiEEEEE5beginB8ne210108Ev, symObjAddr: 0x8C0, symBinAddr: 0x100003F20, symSize: 0x30 }
  - { offset: 0xADE9, size: 0x8, addend: 0x0, symName: __ZNSt3__13mapIxiNS_4lessIxEENS_9allocatorINS_4pairIKxiEEEEE3endB8ne210108Ev, symObjAddr: 0x8F0, symBinAddr: 0x100003F50, symSize: 0x30 }
  - { offset: 0xAE0F, size: 0x8, addend: 0x0, symName: __ZNKSt3__114__map_iteratorINS_15__tree_iteratorINS_12__value_typeIxiEEPNS_11__tree_nodeIS3_PvEElEEEdeB8ne210108Ev, symObjAddr: 0x950, symBinAddr: 0x100003FB0, symSize: 0x20 }
  - { offset: 0xAE35, size: 0x8, addend: 0x0, symName: __ZNSt3__114__map_iteratorINS_15__tree_iteratorINS_12__value_typeIxiEEPNS_11__tree_nodeIS3_PvEElEEEppB8ne210108Ev, symObjAddr: 0x970, symBinAddr: 0x100003FD0, symSize: 0x30 }
  - { offset: 0xAE5B, size: 0x8, addend: 0x0, symName: __ZNSt3__13mapIxiNS_4lessIxEENS_9allocatorINS_4pairIKxiEEEEED1B8ne210108Ev, symObjAddr: 0x9D0, symBinAddr: 0x100004030, symSize: 0x20 }
  - { offset: 0xAE85, size: 0x8, addend: 0x0, symName: __ZNSt3__16vectorIxNS_9allocatorIxEEED1B8ne210108Ev, symObjAddr: 0x9F0, symBinAddr: 0x100004050, symSize: 0x20 }
  - { offset: 0xAEAF, size: 0x8, addend: 0x0, symName: __ZNSt3__14pairIKxiEC2B8ne210108IRxRiTnNS_9enable_ifIXclsr25__check_pair_constructionIS1_iEE23__is_pair_constructibleIT_T0_EEEiE4typeELi0EEEOS7_OS8_, symObjAddr: 0xA10, symBinAddr: 0x100004070, symSize: 0x30 }
  - { offset: 0xAF0D, size: 0x8, addend: 0x0, symName: __ZNSt3__112basic_stringIcNS_11char_traitsIcEENS_9allocatorIcEEEC2B8ne210108Ev, symObjAddr: 0xA40, symBinAddr: 0x1000040A0, symSize: 0x40 }
  - { offset: 0xAF37, size: 0x8, addend: 0x0, symName: __ZNSt3__19allocatorIcEC1B8ne210108Ev, symObjAddr: 0xA80, symBinAddr: 0x1000040E0, symSize: 0x20 }
  - { offset: 0xAF61, size: 0x8, addend: 0x0, symName: __ZNKSt3__112basic_stringIcNS_11char_traitsIcEENS_9allocatorIcEEE14__annotate_newB8ne210108Em, symObjAddr: 0xAA0, symBinAddr: 0x100004100, symSize: 0x70 }
  - { offset: 0xAF96, size: 0x8, addend: 0x0, symName: __ZNSt3__19allocatorIcEC2B8ne210108Ev, symObjAddr: 0xB10, symBinAddr: 0x100004170, symSize: 0x20 }
  - { offset: 0xAFC0, size: 0x8, addend: 0x0, symName: __ZNSt3__116__non_trivial_ifILb1ENS_9allocatorIcEEEC2B8ne210108Ev, symObjAddr: 0xB30, symBinAddr: 0x100004190, symSize: 0x10 }
  - { offset: 0xAFEA, size: 0x8, addend: 0x0, symName: __ZNKSt3__112basic_stringIcNS_11char_traitsIcEENS_9allocatorIcEEE31__annotate_contiguous_containerB8ne210108EPKvS7_, symObjAddr: 0xB40, symBinAddr: 0x1000041A0, symSize: 0x20 }
  - { offset: 0xB02E, size: 0x8, addend: 0x0, symName: __ZNKSt3__112basic_stringIcNS_11char_traitsIcEENS_9allocatorIcEEE4dataB8ne210108Ev, symObjAddr: 0xB60, symBinAddr: 0x1000041C0, symSize: 0x30 }
  - { offset: 0xB054, size: 0x8, addend: 0x0, symName: __ZNKSt3__112basic_stringIcNS_11char_traitsIcEENS_9allocatorIcEEE8capacityB8ne210108Ev, symObjAddr: 0xB90, symBinAddr: 0x1000041F0, symSize: 0x50 }
  - { offset: 0xB07A, size: 0x8, addend: 0x0, symName: __ZNKSt3__112basic_stringIcNS_11char_traitsIcEENS_9allocatorIcEEE13__get_pointerB8ne210108Ev, symObjAddr: 0xC00, symBinAddr: 0x100004260, symSize: 0x50 }
  - { offset: 0xB0A0, size: 0x8, addend: 0x0, symName: __ZNKSt3__112basic_stringIcNS_11char_traitsIcEENS_9allocatorIcEEE9__is_longB8ne210108Ev, symObjAddr: 0xC50, symBinAddr: 0x1000042B0, symSize: 0x20 }
  - { offset: 0xB0C6, size: 0x8, addend: 0x0, symName: __ZNKSt3__112basic_stringIcNS_11char_traitsIcEENS_9allocatorIcEEE18__get_long_pointerB8ne210108Ev, symObjAddr: 0xC70, symBinAddr: 0x1000042D0, symSize: 0x20 }
  - { offset: 0xB0EC, size: 0x8, addend: 0x0, symName: __ZNKSt3__112basic_stringIcNS_11char_traitsIcEENS_9allocatorIcEEE19__get_short_pointerB8ne210108Ev, symObjAddr: 0xC90, symBinAddr: 0x1000042F0, symSize: 0x20 }
  - { offset: 0xB112, size: 0x8, addend: 0x0, symName: __ZNSt3__114pointer_traitsIPKcE10pointer_toB8ne210108ERS1_, symObjAddr: 0xCB0, symBinAddr: 0x100004310, symSize: 0x10 }
  - { offset: 0xB135, size: 0x8, addend: 0x0, symName: __ZNKSt3__112basic_stringIcNS_11char_traitsIcEENS_9allocatorIcEEE14__get_long_capB8ne210108Ev, symObjAddr: 0xCC0, symBinAddr: 0x100004320, symSize: 0x20 }
  - { offset: 0xB1FB, size: 0x8, addend: 0x0, symName: __ZNKSt3__113basic_istreamIcNS_11char_traitsIcEEE6sentrycvbB8ne210108Ev, symObjAddr: 0xCE0, symBinAddr: 0x100004340, symSize: 0x20 }
  - { offset: 0xB221, size: 0x8, addend: 0x0, symName: __ZNSt3__112basic_stringIcNS_11char_traitsIcEENS_9allocatorIcEEE5clearB8ne210108Ev, symObjAddr: 0xD00, symBinAddr: 0x100004360, symSize: 0xA0 }
  - { offset: 0xB258, size: 0x8, addend: 0x0, symName: __ZNKSt3__18ios_base5widthB8ne210108Ev, symObjAddr: 0xDA0, symBinAddr: 0x100004400, symSize: 0x20 }
  - { offset: 0xB280, size: 0x8, addend: 0x0, symName: __ZNKSt3__112basic_stringIcNS_11char_traitsIcEENS_9allocatorIcEEE8max_sizeB8ne210108Ev, symObjAddr: 0xDC0, symBinAddr: 0x100004420, symSize: 0xA0 }
  - { offset: 0xB2FD, size: 0x8, addend: 0x0, symName: __ZNKSt3__19basic_iosIcNS_11char_traitsIcEEE5rdbufB8ne210108Ev, symObjAddr: 0xEA0, symBinAddr: 0x100004500, symSize: 0x20 }
  - { offset: 0xB323, size: 0x8, addend: 0x0, symName: __ZNSt3__115basic_streambufIcNS_11char_traitsIcEEE5sgetcB8ne210108Ev, symObjAddr: 0xEC0, symBinAddr: 0x100004520, symSize: 0x60 }
  - { offset: 0xB349, size: 0x8, addend: 0x0, symName: __ZNSt3__111char_traitsIcE11eq_int_typeB8ne210108Eii, symObjAddr: 0xF20, symBinAddr: 0x100004580, symSize: 0x20 }
  - { offset: 0xB37A, size: 0x8, addend: 0x0, symName: __ZNSt3__111char_traitsIcE3eofB8ne210108Ev, symObjAddr: 0xF40, symBinAddr: 0x1000045A0, symSize: 0x10 }
  - { offset: 0xB38E, size: 0x8, addend: 0x0, symName: __ZNSt3__111char_traitsIcE12to_char_typeB8ne210108Ei, symObjAddr: 0xF50, symBinAddr: 0x1000045B0, symSize: 0x10 }
  - { offset: 0xB3DE, size: 0x8, addend: 0x0, symName: __ZNKSt3__15ctypeIcE2isB8ne210108Ejc, symObjAddr: 0xF60, symBinAddr: 0x1000045C0, symSize: 0x60 }
  - { offset: 0xB422, size: 0x8, addend: 0x0, symName: __ZNSt3__115basic_streambufIcNS_11char_traitsIcEEE6sbumpcB8ne210108Ev, symObjAddr: 0xFC0, symBinAddr: 0x100004620, symSize: 0x80 }
  - { offset: 0xB456, size: 0x8, addend: 0x0, symName: __ZNSt3__18ios_base5widthB8ne210108El, symObjAddr: 0x1040, symBinAddr: 0x1000046A0, symSize: 0x30 }
  - { offset: 0xB49C, size: 0x8, addend: 0x0, symName: __ZNSt3__18ios_base18__setstate_nothrowB8ne210108Ej, symObjAddr: 0x1070, symBinAddr: 0x1000046D0, symSize: 0x40 }
  - { offset: 0xB4D1, size: 0x8, addend: 0x0, symName: __ZNKSt3__19basic_iosIcNS_11char_traitsIcEEE10exceptionsB8ne210108Ev, symObjAddr: 0x10B0, symBinAddr: 0x100004710, symSize: 0x20 }
  - { offset: 0xB4F7, size: 0x8, addend: 0x0, symName: __ZNSt3__19basic_iosIcNS_11char_traitsIcEEE8setstateB8ne210108Ej, symObjAddr: 0x10D0, symBinAddr: 0x100004730, symSize: 0x30 }
  - { offset: 0xB52C, size: 0x8, addend: 0x0, symName: __ZNKSt3__112basic_stringIcNS_11char_traitsIcEENS_9allocatorIcEEE15__get_long_sizeB8ne210108Ev, symObjAddr: 0x1100, symBinAddr: 0x100004760, symSize: 0x20 }
  - { offset: 0xB552, size: 0x8, addend: 0x0, symName: __ZNSt3__111char_traitsIcE6assignB8ne210108ERcRKc, symObjAddr: 0x1120, symBinAddr: 0x100004780, symSize: 0x20 }
  - { offset: 0xB583, size: 0x8, addend: 0x0, symName: __ZNSt3__112basic_stringIcNS_11char_traitsIcEENS_9allocatorIcEEE18__get_long_pointerB8ne210108Ev, symObjAddr: 0x1140, symBinAddr: 0x1000047A0, symSize: 0x20 }
  - { offset: 0xB5A9, size: 0x8, addend: 0x0, symName: __ZNSt3__112basic_stringIcNS_11char_traitsIcEENS_9allocatorIcEEE15__set_long_sizeB8ne210108Em, symObjAddr: 0x1160, symBinAddr: 0x1000047C0, symSize: 0x20 }
  - { offset: 0xB5DE, size: 0x8, addend: 0x0, symName: __ZNKSt3__112basic_stringIcNS_11char_traitsIcEENS_9allocatorIcEEE16__get_short_sizeB8ne210108Ev, symObjAddr: 0x1180, symBinAddr: 0x1000047E0, symSize: 0x20 }
  - { offset: 0xB604, size: 0x8, addend: 0x0, symName: __ZNSt3__112basic_stringIcNS_11char_traitsIcEENS_9allocatorIcEEE19__get_short_pointerB8ne210108Ev, symObjAddr: 0x11A0, symBinAddr: 0x100004800, symSize: 0x20 }
  - { offset: 0xB62A, size: 0x8, addend: 0x0, symName: __ZNSt3__112basic_stringIcNS_11char_traitsIcEENS_9allocatorIcEEE16__set_short_sizeB8ne210108Em, symObjAddr: 0x11C0, symBinAddr: 0x100004820, symSize: 0x30 }
  - { offset: 0xB65F, size: 0x8, addend: 0x0, symName: __ZNKSt3__112basic_stringIcNS_11char_traitsIcEENS_9allocatorIcEEE17__annotate_shrinkB8ne210108Em, symObjAddr: 0x11F0, symBinAddr: 0x100004850, symSize: 0x60 }
  - { offset: 0xB694, size: 0x8, addend: 0x0, symName: __ZNSt3__114pointer_traitsIPcE10pointer_toB8ne210108ERc, symObjAddr: 0x1250, symBinAddr: 0x1000048B0, symSize: 0x10 }
  - { offset: 0xB6B7, size: 0x8, addend: 0x0, symName: __ZNKSt3__112basic_stringIcNS_11char_traitsIcEENS_9allocatorIcEEE4sizeB8ne210108Ev, symObjAddr: 0x1260, symBinAddr: 0x1000048C0, symSize: 0x50 }
  - { offset: 0xB6E7, size: 0x8, addend: 0x0, symName: __ZNSt3__116allocator_traitsINS_9allocatorIcEEE8max_sizeB8ne210108IS2_TnNS_9enable_ifIX16__has_max_size_vIKT_EEiE4typeELi0EEEmRKS2_, symObjAddr: 0x12B0, symBinAddr: 0x100004910, symSize: 0x20 }
  - { offset: 0xB71A, size: 0x8, addend: 0x0, symName: __ZNSt3__114numeric_limitsImE3maxB8ne210108Ev, symObjAddr: 0x12D0, symBinAddr: 0x100004930, symSize: 0x10 }
  - { offset: 0xB72E, size: 0x8, addend: 0x0, symName: __ZNKSt3__19allocatorIcE8max_sizeB8ne210108Ev, symObjAddr: 0x12E0, symBinAddr: 0x100004940, symSize: 0x20 }
  - { offset: 0xB754, size: 0x8, addend: 0x0, symName: __ZNSt3__123__libcpp_numeric_limitsImLb1EE3maxB8ne210108Ev, symObjAddr: 0x1300, symBinAddr: 0x100004960, symSize: 0x10 }
  - { offset: 0xB768, size: 0x8, addend: 0x0, symName: __ZNKSt3__18ios_base5rdbufB8ne210108Ev, symObjAddr: 0x1310, symBinAddr: 0x100004970, symSize: 0x20 }
  - { offset: 0xB78E, size: 0x8, addend: 0x0, symName: __ZNKSt3__115basic_streambufIcNS_11char_traitsIcEEE4gptrB8ne210108Ev, symObjAddr: 0x1330, symBinAddr: 0x100004990, symSize: 0x20 }
  - { offset: 0xB7B4, size: 0x8, addend: 0x0, symName: __ZNKSt3__115basic_streambufIcNS_11char_traitsIcEEE5egptrB8ne210108Ev, symObjAddr: 0x1350, symBinAddr: 0x1000049B0, symSize: 0x20 }
  - { offset: 0xB7DA, size: 0x8, addend: 0x0, symName: __ZNSt3__111char_traitsIcE11to_int_typeB8ne210108Ec, symObjAddr: 0x1370, symBinAddr: 0x1000049D0, symSize: 0x10 }
  - { offset: 0xB7FD, size: 0x8, addend: 0x0, symName: __ZNSt3__115basic_streambufIcNS_11char_traitsIcEEE5gbumpB8ne210108Ei, symObjAddr: 0x13A0, symBinAddr: 0x100004A00, symSize: 0x30 }
  - { offset: 0xB832, size: 0x8, addend: 0x0, symName: __ZNKSt3__18ios_base10exceptionsB8ne210108Ev, symObjAddr: 0x13D0, symBinAddr: 0x100004A30, symSize: 0x20 }
  - { offset: 0xB85A, size: 0x8, addend: 0x0, symName: __ZNSt3__18ios_base8setstateB8ne210108Ej, symObjAddr: 0x13F0, symBinAddr: 0x100004A50, symSize: 0x30 }
  - { offset: 0xB891, size: 0x8, addend: 0x0, symName: __ZNSt3__16vectorIxNS_9allocatorIxEEEC2B8ne210108Em, symObjAddr: 0x1420, symBinAddr: 0x100004A80, symSize: 0xC0 }
  - { offset: 0xB8DD, size: 0x8, addend: 0x0, symName: __ZNSt3__19allocatorIxEC1B8ne210108Ev, symObjAddr: 0x14E0, symBinAddr: 0x100004B40, symSize: 0x20 }
  - { offset: 0xB907, size: 0x8, addend: 0x0, symName: __ZNSt3__16vectorIxNS_9allocatorIxEEE16__destroy_vectorC1B8ne210108ERS3_, symObjAddr: 0x1540, symBinAddr: 0x100004BA0, symSize: 0x30 }
  - { offset: 0xB93F, size: 0x8, addend: 0x0, symName: __ZNSt3__16vectorIxNS_9allocatorIxEEE11__vallocateB8ne210108Em, symObjAddr: 0x1570, symBinAddr: 0x100004BD0, symSize: 0x90 }
  - { offset: 0xB983, size: 0x8, addend: 0x0, symName: __ZNSt3__16vectorIxNS_9allocatorIxEEE18__construct_at_endEm, symObjAddr: 0x1600, symBinAddr: 0x100004C60, symSize: 0xB0 }
  - { offset: 0xB9F5, size: 0x8, addend: 0x0, symName: __ZNSt3__128__exception_guard_exceptionsINS_6vectorIxNS_9allocatorIxEEE16__destroy_vectorEE10__completeB8ne210108Ev, symObjAddr: 0x16B0, symBinAddr: 0x100004D10, symSize: 0x20 }
  - { offset: 0xBA1B, size: 0x8, addend: 0x0, symName: __ZNSt3__128__exception_guard_exceptionsINS_6vectorIxNS_9allocatorIxEEE16__destroy_vectorEED1B8ne210108Ev, symObjAddr: 0x16D0, symBinAddr: 0x100004D30, symSize: 0x20 }
  - { offset: 0xBA45, size: 0x8, addend: 0x0, symName: __ZNSt3__19allocatorIxEC2B8ne210108Ev, symObjAddr: 0x16F0, symBinAddr: 0x100004D50, symSize: 0x20 }
  - { offset: 0xBA6F, size: 0x8, addend: 0x0, symName: __ZNSt3__116__non_trivial_ifILb1ENS_9allocatorIxEEEC2B8ne210108Ev, symObjAddr: 0x1710, symBinAddr: 0x100004D70, symSize: 0x10 }
  - { offset: 0xBA99, size: 0x8, addend: 0x0, symName: __ZNSt3__128__exception_guard_exceptionsINS_6vectorIxNS_9allocatorIxEEE16__destroy_vectorEEC1B8ne210108ES5_, symObjAddr: 0x1720, symBinAddr: 0x100004D80, symSize: 0x30 }
  - { offset: 0xBAD1, size: 0x8, addend: 0x0, symName: __ZNSt3__128__exception_guard_exceptionsINS_6vectorIxNS_9allocatorIxEEE16__destroy_vectorEEC2B8ne210108ES5_, symObjAddr: 0x1750, symBinAddr: 0x100004DB0, symSize: 0x20 }
  - { offset: 0xBB09, size: 0x8, addend: 0x0, symName: __ZNSt3__16vectorIxNS_9allocatorIxEEE16__destroy_vectorC2B8ne210108ERS3_, symObjAddr: 0x1770, symBinAddr: 0x100004DD0, symSize: 0x20 }
  - { offset: 0xBB41, size: 0x8, addend: 0x0, symName: __ZNKSt3__16vectorIxNS_9allocatorIxEEE8max_sizeB8ne210108Ev, symObjAddr: 0x1790, symBinAddr: 0x100004DF0, symSize: 0x50 }
  - { offset: 0xBB67, size: 0x8, addend: 0x0, symName: __ZNSt3__16vectorIxNS_9allocatorIxEEE20__throw_length_errorB8ne210108Ev, symObjAddr: 0x17E0, symBinAddr: 0x100004E40, symSize: 0x10 }
  - { offset: 0xBB7B, size: 0x8, addend: 0x0, symName: __ZNKSt3__16vectorIxNS_9allocatorIxEEE14__annotate_newB8ne210108Em, symObjAddr: 0x1830, symBinAddr: 0x100004E90, symSize: 0x70 }
  - { offset: 0xBBBA, size: 0x8, addend: 0x0, symName: __ZNSt3__116allocator_traitsINS_9allocatorIxEEE8max_sizeB8ne210108IS2_TnNS_9enable_ifIX16__has_max_size_vIKT_EEiE4typeELi0EEEmRKS2_, symObjAddr: 0x18D0, symBinAddr: 0x100004F30, symSize: 0x20 }
  - { offset: 0xBBED, size: 0x8, addend: 0x0, symName: __ZNSt3__114numeric_limitsIlE3maxB8ne210108Ev, symObjAddr: 0x18F0, symBinAddr: 0x100004F50, symSize: 0x10 }
  - { offset: 0xBC15, size: 0x8, addend: 0x0, symName: __ZNKSt3__16__lessIvvEclB8ne210108ImmEEbRKT_RKT0_, symObjAddr: 0x1950, symBinAddr: 0x100004FB0, symSize: 0x30 }
  - { offset: 0xBC69, size: 0x8, addend: 0x0, symName: __ZNKSt3__19allocatorIxE8max_sizeB8ne210108Ev, symObjAddr: 0x1980, symBinAddr: 0x100004FE0, symSize: 0x20 }
  - { offset: 0xBC8F, size: 0x8, addend: 0x0, symName: __ZNSt3__123__libcpp_numeric_limitsIlLb1EE3maxB8ne210108Ev, symObjAddr: 0x19A0, symBinAddr: 0x100005000, symSize: 0x10 }
  - { offset: 0xBCA3, size: 0x8, addend: 0x0, symName: __ZNSt12length_errorC1B8ne210108EPKc, symObjAddr: 0x1A10, symBinAddr: 0x100005070, symSize: 0x30 }
  - { offset: 0xBCDB, size: 0x8, addend: 0x0, symName: __ZNSt12length_errorC2B8ne210108EPKc, symObjAddr: 0x1A40, symBinAddr: 0x1000050A0, symSize: 0x40 }
  - { offset: 0xBD13, size: 0x8, addend: 0x0, symName: __ZNSt3__19allocatorIxE8allocateB8ne210108Em, symObjAddr: 0x1A80, symBinAddr: 0x1000050E0, symSize: 0x50 }
  - { offset: 0xBD47, size: 0x8, addend: 0x0, symName: __ZNKSt3__16vectorIxNS_9allocatorIxEEE31__annotate_contiguous_containerB8ne210108EPKvS5_, symObjAddr: 0x1B90, symBinAddr: 0x1000051F0, symSize: 0x60 }
  - { offset: 0xBD8B, size: 0x8, addend: 0x0, symName: __ZNKSt3__16vectorIxNS_9allocatorIxEEE4dataB8ne210108Ev, symObjAddr: 0x1BF0, symBinAddr: 0x100005250, symSize: 0x20 }
  - { offset: 0xBDB1, size: 0x8, addend: 0x0, symName: __ZNKSt3__16vectorIxNS_9allocatorIxEEE8capacityB8ne210108Ev, symObjAddr: 0x1C10, symBinAddr: 0x100005270, symSize: 0x20 }
  - { offset: 0xBDF0, size: 0x8, addend: 0x0, symName: __ZNSt3__16vectorIxNS_9allocatorIxEEE21_ConstructTransactionC1B8ne210108ERS3_m, symObjAddr: 0x1C60, symBinAddr: 0x1000052C0, symSize: 0x30 }
  - { offset: 0xBE38, size: 0x8, addend: 0x0, symName: __ZNSt3__116allocator_traitsINS_9allocatorIxEEE9constructB8ne210108IxJETnNS_9enable_ifIX17__has_construct_vIS2_PT_DpT0_EEiE4typeELi0EEEvRS2_S7_DpOS8_, symObjAddr: 0x1C90, symBinAddr: 0x1000052F0, symSize: 0x30 }
  - { offset: 0xBE7F, size: 0x8, addend: 0x0, symName: __ZNSt3__16vectorIxNS_9allocatorIxEEE21_ConstructTransactionD1B8ne210108Ev, symObjAddr: 0x1CC0, symBinAddr: 0x100005320, symSize: 0x20 }
  - { offset: 0xBEA9, size: 0x8, addend: 0x0, symName: __ZNSt3__16vectorIxNS_9allocatorIxEEE21_ConstructTransactionC2B8ne210108ERS3_m, symObjAddr: 0x1CE0, symBinAddr: 0x100005340, symSize: 0x60 }
  - { offset: 0xBEF1, size: 0x8, addend: 0x0, symName: __ZNKSt3__16vectorIxNS_9allocatorIxEEE19__annotate_increaseB8ne210108Em, symObjAddr: 0x1D40, symBinAddr: 0x1000053A0, symSize: 0x80 }
  - { offset: 0xBF26, size: 0x8, addend: 0x0, symName: __ZNKSt3__16vectorIxNS_9allocatorIxEEE4sizeB8ne210108Ev, symObjAddr: 0x1DC0, symBinAddr: 0x100005420, symSize: 0x20 }
  - { offset: 0xBF4C, size: 0x8, addend: 0x0, symName: __ZNSt3__19allocatorIxE9constructB8ne210108IxJEEEvPT_DpOT0_, symObjAddr: 0x1DE0, symBinAddr: 0x100005440, symSize: 0x20 }
  - { offset: 0xBF8E, size: 0x8, addend: 0x0, symName: __ZNSt3__16vectorIxNS_9allocatorIxEEE21_ConstructTransactionD2B8ne210108Ev, symObjAddr: 0x1E00, symBinAddr: 0x100005460, symSize: 0x50 }
  - { offset: 0xBFB8, size: 0x8, addend: 0x0, symName: __ZNKSt3__16vectorIxNS_9allocatorIxEEE17__annotate_shrinkB8ne210108Em, symObjAddr: 0x1E50, symBinAddr: 0x1000054B0, symSize: 0x70 }
  - { offset: 0xBFED, size: 0x8, addend: 0x0, symName: __ZNSt3__128__exception_guard_exceptionsINS_6vectorIxNS_9allocatorIxEEE16__destroy_vectorEED2B8ne210108Ev, symObjAddr: 0x1EC0, symBinAddr: 0x100005520, symSize: 0x40 }
  - { offset: 0xC017, size: 0x8, addend: 0x0, symName: __ZNSt3__16vectorIxNS_9allocatorIxEEE16__destroy_vectorclB8ne210108Ev, symObjAddr: 0x1F00, symBinAddr: 0x100005560, symSize: 0x70 }
  - { offset: 0xC03D, size: 0x8, addend: 0x0, symName: __ZNSt3__16vectorIxNS_9allocatorIxEEE5clearB8ne210108Ev, symObjAddr: 0x1F70, symBinAddr: 0x1000055D0, symSize: 0x40 }
  - { offset: 0xC072, size: 0x8, addend: 0x0, symName: __ZNKSt3__16vectorIxNS_9allocatorIxEEE17__annotate_deleteB8ne210108Ev, symObjAddr: 0x1FB0, symBinAddr: 0x100005610, symSize: 0x80 }
  - { offset: 0xC098, size: 0x8, addend: 0x0, symName: __ZNSt3__116allocator_traitsINS_9allocatorIxEEE10deallocateB8ne210108ERS2_Pxm, symObjAddr: 0x2030, symBinAddr: 0x100005690, symSize: 0x30 }
  - { offset: 0xC0DA, size: 0x8, addend: 0x0, symName: __ZNSt3__16vectorIxNS_9allocatorIxEEE22__base_destruct_at_endB8ne210108EPx, symObjAddr: 0x2060, symBinAddr: 0x1000056C0, symSize: 0x80 }
  - { offset: 0xC11E, size: 0x8, addend: 0x0, symName: __ZNSt3__116allocator_traitsINS_9allocatorIxEEE7destroyB8ne210108IxTnNS_9enable_ifIX15__has_destroy_vIS2_PT_EEiE4typeELi0EEEvRS2_S7_, symObjAddr: 0x20E0, symBinAddr: 0x100005740, symSize: 0x30 }
  - { offset: 0xC160, size: 0x8, addend: 0x0, symName: __ZNSt3__19allocatorIxE7destroyB8ne210108EPx, symObjAddr: 0x2110, symBinAddr: 0x100005770, symSize: 0x10 }
  - { offset: 0xC194, size: 0x8, addend: 0x0, symName: __ZNSt3__19allocatorIxE10deallocateB8ne210108EPxm, symObjAddr: 0x2120, symBinAddr: 0x100005780, symSize: 0x30 }
  - { offset: 0xC1D6, size: 0x8, addend: 0x0, symName: __ZNSt3__16vectorIxNS_9allocatorIxEEED2B8ne210108Ev, symObjAddr: 0x21B0, symBinAddr: 0x100005810, symSize: 0x40 }
  - { offset: 0xC200, size: 0x8, addend: 0x0, symName: __ZNSt3__112basic_stringIcNS_11char_traitsIcEENS_9allocatorIcEEE13__fits_in_ssoB8ne210108Em, symObjAddr: 0x21F0, symBinAddr: 0x100005850, symSize: 0x20 }
  - { offset: 0xC224, size: 0x8, addend: 0x0, symName: __ZNSt3__112basic_stringIcNS_11char_traitsIcEENS_9allocatorIcEEE13__get_pointerB8ne210108Ev, symObjAddr: 0x2210, symBinAddr: 0x100005870, symSize: 0x50 }
  - { offset: 0xC24A, size: 0x8, addend: 0x0, symName: __ZNSt3__13mapIxiNS_4lessIxEENS_9allocatorINS_4pairIKxiEEEEEC2B8ne210108Ev, symObjAddr: 0x2260, symBinAddr: 0x1000058C0, symSize: 0x30 }
  - { offset: 0xC274, size: 0x8, addend: 0x0, symName: __ZNSt3__119__map_value_compareIxNS_4pairIKxiEENS_4lessIxEELb1EEC1B8ne210108ES5_, symObjAddr: 0x2290, symBinAddr: 0x1000058F0, symSize: 0x20 }
  - { offset: 0xC2AD, size: 0x8, addend: 0x0, symName: __ZNSt3__16__treeINS_12__value_typeIxiEENS_19__map_value_compareIxNS_4pairIKxiEENS_4lessIxEELb1EEENS_9allocatorIS6_EEEC1ERKS9_, symObjAddr: 0x22B0, symBinAddr: 0x100005910, symSize: 0x30 }
  - { offset: 0xC2E8, size: 0x8, addend: 0x0, symName: __ZNSt3__119__map_value_compareIxNS_4pairIKxiEENS_4lessIxEELb1EEC2B8ne210108ES5_, symObjAddr: 0x22E0, symBinAddr: 0x100005940, symSize: 0x10 }
  - { offset: 0xC321, size: 0x8, addend: 0x0, symName: __ZNSt3__16__treeINS_12__value_typeIxiEENS_19__map_value_compareIxNS_4pairIKxiEENS_4lessIxEELb1EEENS_9allocatorIS6_EEEC2ERKS9_, symObjAddr: 0x22F0, symBinAddr: 0x100005950, symSize: 0x60 }
  - { offset: 0xC35C, size: 0x8, addend: 0x0, symName: __ZNSt3__115__tree_end_nodeIPNS_16__tree_node_baseIPvEEEC1B8ne210108Ev, symObjAddr: 0x2350, symBinAddr: 0x1000059B0, symSize: 0x20 }
  - { offset: 0xC386, size: 0x8, addend: 0x0, symName: __ZNSt3__19allocatorINS_11__tree_nodeINS_12__value_typeIxiEEPvEEEC1B8ne210108Ev, symObjAddr: 0x2370, symBinAddr: 0x1000059D0, symSize: 0x20 }
  - { offset: 0xC3B0, size: 0x8, addend: 0x0, symName: __ZNSt3__16__treeINS_12__value_typeIxiEENS_19__map_value_compareIxNS_4pairIKxiEENS_4lessIxEELb1EEENS_9allocatorIS6_EEE10__end_nodeB8ne210108Ev, symObjAddr: 0x2390, symBinAddr: 0x1000059F0, symSize: 0x20 }
  - { offset: 0xC3D6, size: 0x8, addend: 0x0, symName: __ZNSt3__16__treeINS_12__value_typeIxiEENS_19__map_value_compareIxNS_4pairIKxiEENS_4lessIxEELb1EEENS_9allocatorIS6_EEE12__begin_nodeB8ne210108Ev, symObjAddr: 0x23B0, symBinAddr: 0x100005A10, symSize: 0x10 }
  - { offset: 0xC3FC, size: 0x8, addend: 0x0, symName: __ZNSt3__115__tree_end_nodeIPNS_16__tree_node_baseIPvEEEC2B8ne210108Ev, symObjAddr: 0x23C0, symBinAddr: 0x100005A20, symSize: 0x20 }
  - { offset: 0xC426, size: 0x8, addend: 0x0, symName: __ZNSt3__19allocatorINS_11__tree_nodeINS_12__value_typeIxiEEPvEEEC2B8ne210108Ev, symObjAddr: 0x23E0, symBinAddr: 0x100005A40, symSize: 0x20 }
  - { offset: 0xC450, size: 0x8, addend: 0x0, symName: __ZNSt3__116__non_trivial_ifILb1ENS_9allocatorINS_11__tree_nodeINS_12__value_typeIxiEEPvEEEEEC2B8ne210108Ev, symObjAddr: 0x2400, symBinAddr: 0x100005A60, symSize: 0x10 }
  - { offset: 0xC47F, size: 0x8, addend: 0x0, symName: __ZNSt3__114pointer_traitsIPNS_15__tree_end_nodeIPNS_16__tree_node_baseIPvEEEEE10pointer_toB8ne210108ERS6_, symObjAddr: 0x2410, symBinAddr: 0x100005A70, symSize: 0x10 }
  - { offset: 0xC4A2, size: 0x8, addend: 0x0, symName: __ZNSt3__13mapIxiNS_4lessIxEENS_9allocatorINS_4pairIKxiEEEEED2B8ne210108Ev, symObjAddr: 0x2420, symBinAddr: 0x100005A80, symSize: 0x20 }
  - { offset: 0xC4CC, size: 0x8, addend: 0x0, symName: __ZNSt3__16__treeINS_12__value_typeIxiEENS_19__map_value_compareIxNS_4pairIKxiEENS_4lessIxEELb1EEENS_9allocatorIS6_EEED1Ev, symObjAddr: 0x2440, symBinAddr: 0x100005AA0, symSize: 0x20 }
  - { offset: 0xC4F8, size: 0x8, addend: 0x0, symName: __ZNSt3__16__treeINS_12__value_typeIxiEENS_19__map_value_compareIxNS_4pairIKxiEENS_4lessIxEELb1EEENS_9allocatorIS6_EEED2Ev, symObjAddr: 0x2460, symBinAddr: 0x100005AC0, symSize: 0x30 }
  - { offset: 0xC524, size: 0x8, addend: 0x0, symName: __ZNSt3__16__treeINS_12__value_typeIxiEENS_19__map_value_compareIxNS_4pairIKxiEENS_4lessIxEELb1EEENS_9allocatorIS6_EEE7destroyEPNS_11__tree_nodeIS2_PvEE, symObjAddr: 0x2490, symBinAddr: 0x100005AF0, symSize: 0x80 }
  - { offset: 0xC570, size: 0x8, addend: 0x0, symName: __ZNKSt3__16__treeINS_12__value_typeIxiEENS_19__map_value_compareIxNS_4pairIKxiEENS_4lessIxEELb1EEENS_9allocatorIS6_EEE6__rootB8ne210108Ev, symObjAddr: 0x2510, symBinAddr: 0x100005B70, symSize: 0x20 }
  - { offset: 0xC596, size: 0x8, addend: 0x0, symName: __ZNSt3__16__treeINS_12__value_typeIxiEENS_19__map_value_compareIxNS_4pairIKxiEENS_4lessIxEELb1EEENS_9allocatorIS6_EEE12__node_allocB8ne210108Ev, symObjAddr: 0x2530, symBinAddr: 0x100005B90, symSize: 0x20 }
  - { offset: 0xC5BC, size: 0x8, addend: 0x0, symName: __ZNSt3__116allocator_traitsINS_9allocatorINS_11__tree_nodeINS_12__value_typeIxiEEPvEEEEE7destroyB8ne210108INS_4pairIKxiEETnNS_9enable_ifIXnt15__has_destroy_vIS7_PT_EEiE4typeELi0EEEvRS7_SF_, symObjAddr: 0x2550, symBinAddr: 0x100005BB0, symSize: 0x20 }
  - { offset: 0xC5FB, size: 0x8, addend: 0x0, symName: __ZNSt3__116allocator_traitsINS_9allocatorINS_11__tree_nodeINS_12__value_typeIxiEEPvEEEEE10deallocateB8ne210108ERS7_PS6_m, symObjAddr: 0x2570, symBinAddr: 0x100005BD0, symSize: 0x30 }
  - { offset: 0xC63D, size: 0x8, addend: 0x0, symName: __ZNSt3__19allocatorINS_11__tree_nodeINS_12__value_typeIxiEEPvEEE10deallocateB8ne210108EPS5_m, symObjAddr: 0x25B0, symBinAddr: 0x100005C10, symSize: 0x30 }
  - { offset: 0xC67F, size: 0x8, addend: 0x0, symName: __ZNKSt3__16__treeINS_12__value_typeIxiEENS_19__map_value_compareIxNS_4pairIKxiEENS_4lessIxEELb1EEENS_9allocatorIS6_EEE10__end_nodeB8ne210108Ev, symObjAddr: 0x2640, symBinAddr: 0x100005CA0, symSize: 0x20 }
  - { offset: 0xC6BA, size: 0x8, addend: 0x0, symName: __ZNSt3__16__treeINS_12__value_typeIxiEENS_19__map_value_compareIxNS_4pairIKxiEENS_4lessIxEELb1EEENS_9allocatorIS6_EEE25__emplace_unique_key_argsIxJRKNS_21piecewise_construct_tENS_5tupleIJRS5_EEENSH_IJEEEEEENS4_INS_15__tree_iteratorIS2_PNS_11__tree_nodeIS2_PvEElEEbEERKT_DpOT0_, symObjAddr: 0x2660, symBinAddr: 0x100005CC0, symSize: 0x100 }
  - { offset: 0xC797, size: 0x8, addend: 0x0, symName: __ZNKSt3__115__tree_iteratorINS_12__value_typeIxiEEPNS_11__tree_nodeIS2_PvEElEptB8ne210108Ev, symObjAddr: 0x27A0, symBinAddr: 0x100005E00, symSize: 0x30 }
  - { offset: 0xC7BD, size: 0x8, addend: 0x0, symName: __ZNSt3__16__treeINS_12__value_typeIxiEENS_19__map_value_compareIxNS_4pairIKxiEENS_4lessIxEELb1EEENS_9allocatorIS6_EEE12__find_equalIxEERPNS_16__tree_node_baseIPvEERPNS_15__tree_end_nodeISH_EERKT_, symObjAddr: 0x27D0, symBinAddr: 0x100005E30, symSize: 0x150 }
  - { offset: 0xC828, size: 0x8, addend: 0x0, symName: __ZNSt3__16__treeINS_12__value_typeIxiEENS_19__map_value_compareIxNS_4pairIKxiEENS_4lessIxEELb1EEENS_9allocatorIS6_EEE16__construct_nodeIJRKNS_21piecewise_construct_tENS_5tupleIJRS5_EEENSH_IJEEEEEENS_10unique_ptrINS_11__tree_nodeIS2_PvEENS_22__tree_node_destructorINSA_ISO_EEEEEEDpOT_, symObjAddr: 0x2920, symBinAddr: 0x100005F80, symSize: 0xF0 }
  - { offset: 0xC8AF, size: 0x8, addend: 0x0, symName: __ZNSt3__16__treeINS_12__value_typeIxiEENS_19__map_value_compareIxNS_4pairIKxiEENS_4lessIxEELb1EEENS_9allocatorIS6_EEE16__insert_node_atEPNS_15__tree_end_nodeIPNS_16__tree_node_baseIPvEEEERSH_SH_, symObjAddr: 0x2A10, symBinAddr: 0x100006070, symSize: 0xB0 }
  - { offset: 0xC904, size: 0x8, addend: 0x0, symName: __ZNKSt3__110unique_ptrINS_11__tree_nodeINS_12__value_typeIxiEEPvEENS_22__tree_node_destructorINS_9allocatorIS5_EEEEE3getB8ne210108Ev, symObjAddr: 0x2AC0, symBinAddr: 0x100006120, symSize: 0x20 }
  - { offset: 0xC92A, size: 0x8, addend: 0x0, symName: __ZNSt3__110unique_ptrINS_11__tree_nodeINS_12__value_typeIxiEEPvEENS_22__tree_node_destructorINS_9allocatorIS5_EEEEE7releaseB8ne210108Ev, symObjAddr: 0x2AE0, symBinAddr: 0x100006140, symSize: 0x20 }
  - { offset: 0xC95F, size: 0x8, addend: 0x0, symName: __ZNSt3__110unique_ptrINS_11__tree_nodeINS_12__value_typeIxiEEPvEENS_22__tree_node_destructorINS_9allocatorIS5_EEEEED1B8ne210108Ev, symObjAddr: 0x2B00, symBinAddr: 0x100006160, symSize: 0x20 }
  - { offset: 0xC989, size: 0x8, addend: 0x0, symName: __ZNSt3__115__tree_iteratorINS_12__value_typeIxiEEPNS_11__tree_nodeIS2_PvEElEC1B8ne210108ES6_, symObjAddr: 0x2B20, symBinAddr: 0x100006180, symSize: 0x30 }
  - { offset: 0xC9C8, size: 0x8, addend: 0x0, symName: __ZNSt3__14pairINS_15__tree_iteratorINS_12__value_typeIxiEEPNS_11__tree_nodeIS3_PvEElEEbEC1B8ne210108IS8_RbTnNS_9enable_ifIXclsr25__check_pair_constructionIS8_bEE23__is_pair_constructibleIT_T0_EEEiE4typeELi0EEEOSD_OSE_, symObjAddr: 0x2B50, symBinAddr: 0x1000061B0, symSize: 0x30 }
  - { offset: 0xCA26, size: 0x8, addend: 0x0, symName: __ZNKSt3__16__treeINS_12__value_typeIxiEENS_19__map_value_compareIxNS_4pairIKxiEENS_4lessIxEELb1EEENS_9allocatorIS6_EEE10__root_ptrB8ne210108Ev, symObjAddr: 0x2B80, symBinAddr: 0x1000061E0, symSize: 0x20 }
  - { offset: 0xCA4C, size: 0x8, addend: 0x0, symName: __ZNSt3__16__treeINS_12__value_typeIxiEENS_19__map_value_compareIxNS_4pairIKxiEENS_4lessIxEELb1EEENS_9allocatorIS6_EEE10value_compB8ne210108Ev, symObjAddr: 0x2BA0, symBinAddr: 0x100006200, symSize: 0x20 }
  - { offset: 0xCA72, size: 0x8, addend: 0x0, symName: __ZNKSt3__119__map_value_compareIxNS_4pairIKxiEENS_4lessIxEELb1EEclB8ne210108ERS2_RKS3_, symObjAddr: 0x2BC0, symBinAddr: 0x100006220, symSize: 0x30 }
  - { offset: 0xCAB6, size: 0x8, addend: 0x0, symName: __ZNKSt3__119__map_value_compareIxNS_4pairIKxiEENS_4lessIxEELb1EEclB8ne210108ERKS3_RS2_, symObjAddr: 0x2BF0, symBinAddr: 0x100006250, symSize: 0x30 }
  - { offset: 0xCAFA, size: 0x8, addend: 0x0, symName: __ZNKSt3__14lessIxEclB8ne210108ERKxS3_, symObjAddr: 0x2C20, symBinAddr: 0x100006280, symSize: 0x30 }
  - { offset: 0xCB3E, size: 0x8, addend: 0x0, symName: __ZNSt3__116allocator_traitsINS_9allocatorINS_11__tree_nodeINS_12__value_typeIxiEEPvEEEEE8allocateB8ne210108ERS7_m, symObjAddr: 0x2C50, symBinAddr: 0x1000062B0, symSize: 0x30 }
  - { offset: 0xCB71, size: 0x8, addend: 0x0, symName: __ZNSt3__122__tree_node_destructorINS_9allocatorINS_11__tree_nodeINS_12__value_typeIxiEEPvEEEEEC1B8ne210108ERS7_b, symObjAddr: 0x2C80, symBinAddr: 0x1000062E0, symSize: 0x40 }
  - { offset: 0xCBBF, size: 0x8, addend: 0x0, symName: __ZNSt3__110unique_ptrINS_11__tree_nodeINS_12__value_typeIxiEEPvEENS_22__tree_node_destructorINS_9allocatorIS5_EEEEEC1B8ne210108ILb1EvEEPS5_NS_16__dependent_typeINS_27__unique_ptr_deleter_sfinaeIS9_EEXT_EE20__good_rval_ref_typeE, symObjAddr: 0x2CC0, symBinAddr: 0x100006320, symSize: 0x30 }
  - { offset: 0xCC10, size: 0x8, addend: 0x0, symName: __ZNSt3__116allocator_traitsINS_9allocatorINS_11__tree_nodeINS_12__value_typeIxiEEPvEEEEE9constructB8ne210108INS_4pairIKxiEEJRKNS_21piecewise_construct_tENS_5tupleIJRSB_EEENSG_IJEEEETnNS_9enable_ifIX17__has_construct_vIS7_PT_DpT0_EEiE4typeELi0EEEvRS7_SM_DpOSN_, symObjAddr: 0x2CF0, symBinAddr: 0x100006350, symSize: 0x40 }
  - { offset: 0xCC94, size: 0x8, addend: 0x0, symName: __ZNKSt3__110unique_ptrINS_11__tree_nodeINS_12__value_typeIxiEEPvEENS_22__tree_node_destructorINS_9allocatorIS5_EEEEEptB8ne210108Ev, symObjAddr: 0x2D30, symBinAddr: 0x100006390, symSize: 0x20 }
  - { offset: 0xCCBA, size: 0x8, addend: 0x0, symName: __ZNSt3__110unique_ptrINS_11__tree_nodeINS_12__value_typeIxiEEPvEENS_22__tree_node_destructorINS_9allocatorIS5_EEEEE11get_deleterB8ne210108Ev, symObjAddr: 0x2D50, symBinAddr: 0x1000063B0, symSize: 0x20 }
  - { offset: 0xCCE0, size: 0x8, addend: 0x0, symName: __ZNSt3__19allocatorINS_11__tree_nodeINS_12__value_typeIxiEEPvEEE8allocateB8ne210108Em, symObjAddr: 0x2D70, symBinAddr: 0x1000063D0, symSize: 0x50 }
  - { offset: 0xCD1E, size: 0x8, addend: 0x0, symName: __ZNSt3__116allocator_traitsINS_9allocatorINS_11__tree_nodeINS_12__value_typeIxiEEPvEEEEE8max_sizeB8ne210108IS7_TnNS_9enable_ifIX16__has_max_size_vIKT_EEiE4typeELi0EEEmRKS7_, symObjAddr: 0x2DC0, symBinAddr: 0x100006420, symSize: 0x20 }
  - { offset: 0xCD51, size: 0x8, addend: 0x0, symName: __ZNKSt3__19allocatorINS_11__tree_nodeINS_12__value_typeIxiEEPvEEE8max_sizeB8ne210108Ev, symObjAddr: 0x2E40, symBinAddr: 0x1000064A0, symSize: 0x20 }
  - { offset: 0xCD77, size: 0x8, addend: 0x0, symName: __ZNSt3__122__tree_node_destructorINS_9allocatorINS_11__tree_nodeINS_12__value_typeIxiEEPvEEEEEC2B8ne210108ERS7_b, symObjAddr: 0x2E60, symBinAddr: 0x1000064C0, symSize: 0x30 }
  - { offset: 0xCDBF, size: 0x8, addend: 0x0, symName: __ZNSt3__110unique_ptrINS_11__tree_nodeINS_12__value_typeIxiEEPvEENS_22__tree_node_destructorINS_9allocatorIS5_EEEEEC2B8ne210108ILb1EvEEPS5_NS_16__dependent_typeINS_27__unique_ptr_deleter_sfinaeIS9_EEXT_EE20__good_rval_ref_typeE, symObjAddr: 0x2E90, symBinAddr: 0x1000064F0, symSize: 0x50 }
  - { offset: 0xCE15, size: 0x8, addend: 0x0, symName: __ZNSt3__125__compressed_pair_paddingINS_22__tree_node_destructorINS_9allocatorINS_11__tree_nodeINS_12__value_typeIxiEEPvEEEEEELb0EEC1Ev, symObjAddr: 0x2EE0, symBinAddr: 0x100006540, symSize: 0x20 }
  - { offset: 0xCE41, size: 0x8, addend: 0x0, symName: __ZNSt3__125__compressed_pair_paddingINS_22__tree_node_destructorINS_9allocatorINS_11__tree_nodeINS_12__value_typeIxiEEPvEEEEEELb0EEC2Ev, symObjAddr: 0x2F00, symBinAddr: 0x100006560, symSize: 0x40 }
  - { offset: 0xCE6D, size: 0x8, addend: 0x0, symName: __ZNSt3__19allocatorINS_11__tree_nodeINS_12__value_typeIxiEEPvEEE9constructB8ne210108INS_4pairIKxiEEJRKNS_21piecewise_construct_tENS_5tupleIJRS9_EEENSE_IJEEEEEEvPT_DpOT0_, symObjAddr: 0x2F40, symBinAddr: 0x1000065A0, symSize: 0x40 }
  - { offset: 0xCEE9, size: 0x8, addend: 0x0, symName: __ZNSt3__14pairIKxiEC1B8ne210108IJRS1_EJEEENS_21piecewise_construct_tENS_5tupleIJDpT_EEENS6_IJDpT0_EEE, symObjAddr: 0x2F80, symBinAddr: 0x1000065E0, symSize: 0x40 }
  - { offset: 0xCF4D, size: 0x8, addend: 0x0, symName: __ZNSt3__14pairIKxiEC1B8ne210108IJRS1_EJEJLm0EETpTnmJEEENS_21piecewise_construct_tERNS_5tupleIJDpT_EEERNS6_IJDpT0_EEENS_15__tuple_indicesIJXspT1_EEEENSF_IJXspT2_EEEE, symObjAddr: 0x2FC0, symBinAddr: 0x100006620, symSize: 0x30 }
  - { offset: 0xCFDA, size: 0x8, addend: 0x0, symName: __ZNSt3__14pairIKxiEC2B8ne210108IJRS1_EJEJLm0EETpTnmJEEENS_21piecewise_construct_tERNS_5tupleIJDpT_EEERNS6_IJDpT0_EEENS_15__tuple_indicesIJXspT1_EEEENSF_IJXspT2_EEEE, symObjAddr: 0x2FF0, symBinAddr: 0x100006650, symSize: 0x40 }
  - { offset: 0xD067, size: 0x8, addend: 0x0, symName: __ZNSt3__112__tuple_leafILm0ERKxLb0EE3getB8ne210108Ev, symObjAddr: 0x3050, symBinAddr: 0x1000066B0, symSize: 0x20 }
  - { offset: 0xD08D, size: 0x8, addend: 0x0, symName: __ZNSt3__16__treeINS_12__value_typeIxiEENS_19__map_value_compareIxNS_4pairIKxiEENS_4lessIxEELb1EEENS_9allocatorIS6_EEE4sizeB8ne210108Ev, symObjAddr: 0x3330, symBinAddr: 0x100006990, symSize: 0x20 }
  - { offset: 0xD0B3, size: 0x8, addend: 0x0, symName: __ZNKSt3__116__tree_node_baseIPvE15__parent_unsafeB8ne210108Ev, symObjAddr: 0x3350, symBinAddr: 0x1000069B0, symSize: 0x20 }
  - { offset: 0xD0D9, size: 0x8, addend: 0x0, symName: __ZNSt3__116__tree_node_baseIPvE12__set_parentB8ne210108EPS2_, symObjAddr: 0x3500, symBinAddr: 0x100006B60, symSize: 0x20 }
  - { offset: 0xD10E, size: 0x8, addend: 0x0, symName: __ZNSt3__110unique_ptrINS_11__tree_nodeINS_12__value_typeIxiEEPvEENS_22__tree_node_destructorINS_9allocatorIS5_EEEEED2B8ne210108Ev, symObjAddr: 0x3520, symBinAddr: 0x100006B80, symSize: 0x20 }
  - { offset: 0xD138, size: 0x8, addend: 0x0, symName: __ZNSt3__110unique_ptrINS_11__tree_nodeINS_12__value_typeIxiEEPvEENS_22__tree_node_destructorINS_9allocatorIS5_EEEEE5resetB8ne210108EPS5_, symObjAddr: 0x3540, symBinAddr: 0x100006BA0, symSize: 0x50 }
  - { offset: 0xD17C, size: 0x8, addend: 0x0, symName: __ZNSt3__122__tree_node_destructorINS_9allocatorINS_11__tree_nodeINS_12__value_typeIxiEEPvEEEEEclB8ne210108EPS6_, symObjAddr: 0x3590, symBinAddr: 0x100006BF0, symSize: 0x60 }
  - { offset: 0xD1B1, size: 0x8, addend: 0x0, symName: __ZNSt3__115__tree_iteratorINS_12__value_typeIxiEEPNS_11__tree_nodeIS2_PvEElEC2B8ne210108ES6_, symObjAddr: 0x35F0, symBinAddr: 0x100006C50, symSize: 0x20 }
  - { offset: 0xD1EA, size: 0x8, addend: 0x0, symName: __ZNSt3__14pairINS_15__tree_iteratorINS_12__value_typeIxiEEPNS_11__tree_nodeIS3_PvEElEEbEC2B8ne210108IS8_RbTnNS_9enable_ifIXclsr25__check_pair_constructionIS8_bEE23__is_pair_constructibleIT_T0_EEEiE4typeELi0EEEOSD_OSE_, symObjAddr: 0x3610, symBinAddr: 0x100006C70, symSize: 0x30 }
  - { offset: 0xD248, size: 0x8, addend: 0x0, symName: __ZNSt3__15tupleIJRKxEEC1B8ne210108INS_4_AndETnNS_9enable_ifIXsrT_IJNS_17integral_constantIbLb1EEENS_21is_copy_constructibleIS2_EEEE5valueEiE4typeELi0EEES2_, symObjAddr: 0x3640, symBinAddr: 0x100006CA0, symSize: 0x30 }
  - { offset: 0xD290, size: 0x8, addend: 0x0, symName: __ZNSt3__15tupleIJRKxEEC2B8ne210108INS_4_AndETnNS_9enable_ifIXsrT_IJNS_17integral_constantIbLb1EEENS_21is_copy_constructibleIS2_EEEE5valueEiE4typeELi0EEES2_, symObjAddr: 0x3670, symBinAddr: 0x100006CD0, symSize: 0x30 }
  - { offset: 0xD2D8, size: 0x8, addend: 0x0, symName: __ZNSt3__112__tuple_implINS_15__tuple_indicesIJLm0EEEEJRKxEEC1B8ne210108IJLm0EEJS4_ETpTnmJEJEJS4_EEENS1_IJXspT_EEEENS_13__tuple_typesIJDpT0_EEENS1_IJXspT1_EEEENS8_IJDpT2_EEEDpOT3_, symObjAddr: 0x36A0, symBinAddr: 0x100006D00, symSize: 0x30 }
  - { offset: 0xD36D, size: 0x8, addend: 0x0, symName: __ZNSt3__112__tuple_implINS_15__tuple_indicesIJLm0EEEEJRKxEEC2B8ne210108IJLm0EEJS4_ETpTnmJEJEJS4_EEENS1_IJXspT_EEEENS_13__tuple_typesIJDpT0_EEENS1_IJXspT1_EEEENS8_IJDpT2_EEEDpOT3_, symObjAddr: 0x36D0, symBinAddr: 0x100006D30, symSize: 0x30 }
  - { offset: 0xD402, size: 0x8, addend: 0x0, symName: __ZNSt3__112__tuple_leafILm0ERKxLb0EEC2B8ne210108IS2_TnNS_9enable_ifIXsr4_AndINS_17integral_constantIbXntu9__is_sameu14__remove_cvrefIT_ES3_EEEENS_16is_constructibleIS2_JS7_EEEEE5valueEiE4typeELi0EEEOS7_, symObjAddr: 0x3700, symBinAddr: 0x100006D60, symSize: 0x20 }
  - { offset: 0xD44A, size: 0x8, addend: 0x0, symName: __ZNSt3__114pointer_traitsIPNS_4pairIKxiEEE10pointer_toB8ne210108ERS3_, symObjAddr: 0x3720, symBinAddr: 0x100006D80, symSize: 0x10 }
  - { offset: 0xD46D, size: 0x8, addend: 0x0, symName: __ZNKSt3__115__tree_iteratorINS_12__value_typeIxiEEPNS_11__tree_nodeIS2_PvEElE8__get_npB8ne210108Ev, symObjAddr: 0x3730, symBinAddr: 0x100006D90, symSize: 0x20 }
  - { offset: 0xD493, size: 0x8, addend: 0x0, symName: __ZNSt3__16__treeINS_12__value_typeIxiEENS_19__map_value_compareIxNS_4pairIKxiEENS_4lessIxEELb1EEENS_9allocatorIS6_EEE16__emplace_uniqueB8ne210108IS6_EENS4_INS_15__tree_iteratorIS2_PNS_11__tree_nodeIS2_PvEElEEbEEOT_, symObjAddr: 0x3750, symBinAddr: 0x100006DB0, symSize: 0x40 }
  - { offset: 0xD4D1, size: 0x8, addend: 0x0, symName: __ZNSt3__14pairINS_14__map_iteratorINS_15__tree_iteratorINS_12__value_typeIxiEEPNS_11__tree_nodeIS4_PvEElEEEEbEC1B8ne210108IS9_bTnNS_9enable_ifIXclsr25__check_pair_constructionISA_bEE23__is_pair_constructibleIT_T0_EEEiE4typeELi0EEEONS0_ISE_SF_EE, symObjAddr: 0x3790, symBinAddr: 0x100006DF0, symSize: 0x30 }
  - { offset: 0xD521, size: 0x8, addend: 0x0, symName: __ZNSt3__16__treeINS_12__value_typeIxiEENS_19__map_value_compareIxNS_4pairIKxiEENS_4lessIxEELb1EEENS_9allocatorIS6_EEE28__emplace_unique_extract_keyB8ne210108IS6_EENS4_INS_15__tree_iteratorIS2_PNS_11__tree_nodeIS2_PvEElEEbEEOT_NS_23__extract_key_first_tagE, symObjAddr: 0x37C0, symBinAddr: 0x100006E20, symSize: 0x50 }
  - { offset: 0xD56B, size: 0x8, addend: 0x0, symName: __ZNSt3__16__treeINS_12__value_typeIxiEENS_19__map_value_compareIxNS_4pairIKxiEENS_4lessIxEELb1EEENS_9allocatorIS6_EEE25__emplace_unique_key_argsIxJS6_EEENS4_INS_15__tree_iteratorIS2_PNS_11__tree_nodeIS2_PvEElEEbEERKT_DpOT0_, symObjAddr: 0x3810, symBinAddr: 0x100006E70, symSize: 0xE0 }
  - { offset: 0xD61E, size: 0x8, addend: 0x0, symName: __ZNSt3__16__treeINS_12__value_typeIxiEENS_19__map_value_compareIxNS_4pairIKxiEENS_4lessIxEELb1EEENS_9allocatorIS6_EEE16__construct_nodeIJS6_EEENS_10unique_ptrINS_11__tree_nodeIS2_PvEENS_22__tree_node_destructorINSA_ISH_EEEEEEDpOT_, symObjAddr: 0x38F0, symBinAddr: 0x100006F50, symSize: 0xE0 }
  - { offset: 0xD67D, size: 0x8, addend: 0x0, symName: __ZNSt3__116allocator_traitsINS_9allocatorINS_11__tree_nodeINS_12__value_typeIxiEEPvEEEEE9constructB8ne210108INS_4pairIKxiEEJSC_ETnNS_9enable_ifIX17__has_construct_vIS7_PT_DpT0_EEiE4typeELi0EEEvRS7_SF_DpOSG_, symObjAddr: 0x39D0, symBinAddr: 0x100007030, symSize: 0x30 }
  - { offset: 0xD6D9, size: 0x8, addend: 0x0, symName: __ZNSt3__19allocatorINS_11__tree_nodeINS_12__value_typeIxiEEPvEEE9constructB8ne210108INS_4pairIKxiEEJSA_EEEvPT_DpOT0_, symObjAddr: 0x3A00, symBinAddr: 0x100007060, symSize: 0x30 }
  - { offset: 0xD72F, size: 0x8, addend: 0x0, symName: __ZNSt3__14pairINS_14__map_iteratorINS_15__tree_iteratorINS_12__value_typeIxiEEPNS_11__tree_nodeIS4_PvEElEEEEbEC2B8ne210108IS9_bTnNS_9enable_ifIXclsr25__check_pair_constructionISA_bEE23__is_pair_constructibleIT_T0_EEEiE4typeELi0EEEONS0_ISE_SF_EE, symObjAddr: 0x3A30, symBinAddr: 0x100007090, symSize: 0x50 }
  - { offset: 0xD77F, size: 0x8, addend: 0x0, symName: __ZNSt3__114__map_iteratorINS_15__tree_iteratorINS_12__value_typeIxiEEPNS_11__tree_nodeIS3_PvEElEEEC1B8ne210108ES8_, symObjAddr: 0x3A80, symBinAddr: 0x1000070E0, symSize: 0x30 }
  - { offset: 0xD7B8, size: 0x8, addend: 0x0, symName: __ZNSt3__114__map_iteratorINS_15__tree_iteratorINS_12__value_typeIxiEEPNS_11__tree_nodeIS3_PvEElEEEC2B8ne210108ES8_, symObjAddr: 0x3AB0, symBinAddr: 0x100007110, symSize: 0x20 }
  - { offset: 0xD7F1, size: 0x8, addend: 0x0, symName: __ZNSt3__16__treeINS_12__value_typeIxiEENS_19__map_value_compareIxNS_4pairIKxiEENS_4lessIxEELb1EEENS_9allocatorIS6_EEE5beginB8ne210108Ev, symObjAddr: 0x3AD0, symBinAddr: 0x100007130, symSize: 0x30 }
  - { offset: 0xD817, size: 0x8, addend: 0x0, symName: __ZNSt3__115__tree_iteratorINS_12__value_typeIxiEEPNS_11__tree_nodeIS2_PvEElEC1B8ne210108EPNS_15__tree_end_nodeIPNS_16__tree_node_baseIS4_EEEE, symObjAddr: 0x3B00, symBinAddr: 0x100007160, symSize: 0x30 }
  - { offset: 0xD850, size: 0x8, addend: 0x0, symName: __ZNSt3__115__tree_iteratorINS_12__value_typeIxiEEPNS_11__tree_nodeIS2_PvEElEC2B8ne210108EPNS_15__tree_end_nodeIPNS_16__tree_node_baseIS4_EEEE, symObjAddr: 0x3B30, symBinAddr: 0x100007190, symSize: 0x20 }
  - { offset: 0xD889, size: 0x8, addend: 0x0, symName: __ZNSt3__16__treeINS_12__value_typeIxiEENS_19__map_value_compareIxNS_4pairIKxiEENS_4lessIxEELb1EEENS_9allocatorIS6_EEE3endB8ne210108Ev, symObjAddr: 0x3B50, symBinAddr: 0x1000071B0, symSize: 0x30 }
  - { offset: 0xD8AF, size: 0x8, addend: 0x0, symName: __ZNSt3__115__tree_iteratorINS_12__value_typeIxiEEPNS_11__tree_nodeIS2_PvEElEppB8ne210108Ev, symObjAddr: 0x3BE0, symBinAddr: 0x100007240, symSize: 0x30 }
  - { offset: 0xD8D5, size: 0x8, addend: 0x0, symName: __ZNKSt3__115__tree_iteratorINS_12__value_typeIxiEEPNS_11__tree_nodeIS2_PvEElEdeB8ne210108Ev, symObjAddr: 0x3CB0, symBinAddr: 0x100007310, symSize: 0x20 }
  - { offset: 0xD919, size: 0x8, addend: 0x0, symName: __ZNKSt3__113basic_ostreamIcNS_11char_traitsIcEEE6sentrycvbB8ne210108Ev, symObjAddr: 0x3E80, symBinAddr: 0x1000074E0, symSize: 0x20 }
  - { offset: 0xD93F, size: 0x8, addend: 0x0, symName: __ZNSt3__119ostreambuf_iteratorIcNS_11char_traitsIcEEEC1B8ne210108ERNS_13basic_ostreamIcS2_EE, symObjAddr: 0x4080, symBinAddr: 0x1000076E0, symSize: 0x30 }
  - { offset: 0xD977, size: 0x8, addend: 0x0, symName: __ZNKSt3__18ios_base5flagsB8ne210108Ev, symObjAddr: 0x40B0, symBinAddr: 0x100007710, symSize: 0x20 }
  - { offset: 0xD99F, size: 0x8, addend: 0x0, symName: __ZNKSt3__19basic_iosIcNS_11char_traitsIcEEE4fillB8ne210108Ev, symObjAddr: 0x40D0, symBinAddr: 0x100007730, symSize: 0x60 }
  - { offset: 0xD9C5, size: 0x8, addend: 0x0, symName: __ZNKSt3__119ostreambuf_iteratorIcNS_11char_traitsIcEEE6failedB8ne210108Ev, symObjAddr: 0x4130, symBinAddr: 0x100007790, symSize: 0x20 }
  - { offset: 0xD9EB, size: 0x8, addend: 0x0, symName: __ZNSt3__115basic_streambufIcNS_11char_traitsIcEEE5sputnB8ne210108EPKcl, symObjAddr: 0x4150, symBinAddr: 0x1000077B0, symSize: 0x30 }
  - { offset: 0xDA2D, size: 0x8, addend: 0x0, symName: __ZNSt3__112basic_stringIcNS_11char_traitsIcEENS_9allocatorIcEEEC1B8ne210108Emc, symObjAddr: 0x4180, symBinAddr: 0x1000077E0, symSize: 0x30 }
  - { offset: 0xDA75, size: 0x8, addend: 0x0, symName: __ZNSt3__112basic_stringIcNS_11char_traitsIcEENS_9allocatorIcEEE4dataB8ne210108Ev, symObjAddr: 0x41B0, symBinAddr: 0x100007810, symSize: 0x30 }
  - { offset: 0xDA9B, size: 0x8, addend: 0x0, symName: __ZNSt3__112basic_stringIcNS_11char_traitsIcEENS_9allocatorIcEEEC2B8ne210108Emc, symObjAddr: 0x41E0, symBinAddr: 0x100007840, symSize: 0x40 }
  - { offset: 0xDAE3, size: 0x8, addend: 0x0, symName: __ZNSt3__119ostreambuf_iteratorIcNS_11char_traitsIcEEEC2B8ne210108ERNS_13basic_ostreamIcS2_EE, symObjAddr: 0x4230, symBinAddr: 0x100007890, symSize: 0x50 }
  - { offset: 0xDB1B, size: 0x8, addend: 0x0, symName: __ZNKSt3__118_SentinelValueFillINS_11char_traitsIcEEE8__is_setB8ne210108Ev, symObjAddr: 0x4280, symBinAddr: 0x1000078E0, symSize: 0x30 }
  - { offset: 0xDB41, size: 0x8, addend: 0x0, symName: __ZNKSt3__19basic_iosIcNS_11char_traitsIcEEE5widenB8ne210108Ec, symObjAddr: 0x42B0, symBinAddr: 0x100007910, symSize: 0x80 }
  - { offset: 0xDB76, size: 0x8, addend: 0x0, symName: __ZNSt3__118_SentinelValueFillINS_11char_traitsIcEEEaSB8ne210108Ei, symObjAddr: 0x4330, symBinAddr: 0x100007990, symSize: 0x20 }
  - { offset: 0xDBAB, size: 0x8, addend: 0x0, symName: __ZNKSt3__118_SentinelValueFillINS_11char_traitsIcEEE5__getB8ne210108Ev, symObjAddr: 0x4350, symBinAddr: 0x1000079B0, symSize: 0x10 }
  - { offset: 0xDBD1, size: 0x8, addend: 0x0, symName: __ZNKSt3__15ctypeIcE5widenB8ne210108Ec, symObjAddr: 0x4360, symBinAddr: 0x1000079C0, symSize: 0x2B }
...
