---
triple:          'x86_64-apple-darwin'
binary-path:     '/Users/aarush_mac/Documents/Programming/Cpp/Competitive-Programming/Usaco/Silver/StaticRangeSum'
relocations:
  - { offset: 0x4024, size: 0x8, addend: 0x0, symName: __ZNSt3__124__put_character_sequenceB8ne210108IcNS_11char_traitsIcEEEERNS_13basic_ostreamIT_T0_EES7_PKS4_m, symObjAddr: 0x1340, symBinAddr: 0x1000032F0, symSize: 0x1B0 }
  - { offset: 0x5116, size: 0x8, addend: 0x0, symName: __ZNSt3__1neB8ne210108IPxEEbRKNS_11__wrap_iterIT_EES6_, symObjAddr: 0x390, symBinAddr: 0x100002340, symSize: 0x30 }
  - { offset: 0x5159, size: 0x8, addend: 0x0, symName: __ZNSt3__1lsB8ne210108INS_11char_traitsIcEEEERNS_13basic_ostreamIcT_EES6_c, symObjAddr: 0x420, symBinAddr: 0x1000023D0, symSize: 0x30 }
  - { offset: 0x519F, size: 0x8, addend: 0x0, symName: __ZNSt3__1eqB8ne210108IPxEEbRKNS_11__wrap_iterIT_EES6_, symObjAddr: 0x470, symBinAddr: 0x100002420, symSize: 0x40 }
  - { offset: 0x51E2, size: 0x8, addend: 0x0, symName: __ZNSt3__122__make_exception_guardB8ne210108INS_6vectorIxNS_9allocatorIxEEE16__destroy_vectorEEENS_28__exception_guard_exceptionsIT_EES7_, symObjAddr: 0x5B0, symBinAddr: 0x100002560, symSize: 0x40 }
  - { offset: 0x5217, size: 0x8, addend: 0x0, symName: __ZNSt3__119__allocate_at_leastB8ne210108INS_9allocatorIxEEEENS_19__allocation_resultINS_16allocator_traitsIT_E7pointerEEERS5_m, symObjAddr: 0x8A0, symBinAddr: 0x100002850, symSize: 0x40 }
  - { offset: 0x525A, size: 0x8, addend: 0x0, symName: __ZNSt3__13minB8ne210108ImEERKT_S3_S3_, symObjAddr: 0x950, symBinAddr: 0x100002900, symSize: 0x30 }
  - { offset: 0x5487, size: 0x8, addend: 0x0, symName: __ZNSt3__13minB8ne210108ImNS_6__lessIvvEEEERKT_S5_S5_T0_, symObjAddr: 0x9C0, symBinAddr: 0x100002970, symSize: 0x50 }
  - { offset: 0x5526, size: 0x8, addend: 0x0, symName: __ZNSt3__120__throw_length_errorB8ne210108EPKc, symObjAddr: 0xA70, symBinAddr: 0x100002A20, symSize: 0x60 }
  - { offset: 0x554E, size: 0x8, addend: 0x0, symName: __ZNSt3__117__libcpp_allocateB8ne210108IxEEPT_NS_15__element_countEm, symObjAddr: 0xBD0, symBinAddr: 0x100002B80, symSize: 0x60 }
  - { offset: 0x559F, size: 0x8, addend: 0x0, symName: __ZNSt3__124__is_overaligned_for_newB8ne210108Em, symObjAddr: 0xC30, symBinAddr: 0x100002BE0, symSize: 0x20 }
  - { offset: 0x55CB, size: 0x8, addend: 0x0, symName: __ZNSt3__131__annotate_contiguous_containerB8ne210108INS_9allocatorIxEEEEvPKvS4_S4_S4_, symObjAddr: 0xCF0, symBinAddr: 0x100002CA0, symSize: 0x20 }
  - { offset: 0x5626, size: 0x8, addend: 0x0, symName: __ZNSt3__112__to_addressB8ne210108IxEEPT_S2_, symObjAddr: 0xD10, symBinAddr: 0x100002CC0, symSize: 0x10 }
  - { offset: 0x565B, size: 0x8, addend: 0x0, symName: __ZNSt3__119__libcpp_deallocateB8ne210108IxEEvPNS_15__type_identityIT_E4typeENS_15__element_countEm, symObjAddr: 0x1210, symBinAddr: 0x1000031C0, symSize: 0x60 }
  - { offset: 0x56B6, size: 0x8, addend: 0x0, symName: __ZNSt3__116__pad_and_outputB8ne210108IcNS_11char_traitsIcEEEENS_19ostreambuf_iteratorIT_T0_EES6_PKS4_S8_S8_RNS_8ios_baseES4_, symObjAddr: 0x1510, symBinAddr: 0x1000034C0, symSize: 0x1E0 }
  - { offset: 0x577B, size: 0x8, addend: 0x0, symName: __ZNSt3__112__to_addressB8ne210108IcEEPT_S2_, symObjAddr: 0x1960, symBinAddr: 0x100003910, symSize: 0x10 }
  - { offset: 0x57E3, size: 0x8, addend: 0x0, symName: __ZNSt3__19use_facetB8ne210108INS_5ctypeIcEEEERKT_RKNS_6localeE, symObjAddr: 0x1BB0, symBinAddr: 0x100003B60, symSize: 0x30 }
  - { offset: 0x6B1D, size: 0x8, addend: 0x0, symName: __ZSt28__throw_bad_array_new_lengthB8ne210108v, symObjAddr: 0xB90, symBinAddr: 0x100002B40, symSize: 0x40 }
  - { offset: 0x6FCE, size: 0x8, addend: 0x0, symName: _main, symObjAddr: 0x0, symBinAddr: 0x100001FB0, symSize: 0x2B0 }
  - { offset: 0x70B9, size: 0x8, addend: 0x0, symName: __ZNSt3__19basic_iosIcNS_11char_traitsIcEEE3tieB8ne210108EPNS_13basic_ostreamIcS2_EE, symObjAddr: 0x2B0, symBinAddr: 0x100002260, symSize: 0x30 }
  - { offset: 0x70FB, size: 0x8, addend: 0x0, symName: __ZNSt3__16vectorIxNS_9allocatorIxEEEC1B8ne210108Em, symObjAddr: 0x2E0, symBinAddr: 0x100002290, symSize: 0x30 }
  - { offset: 0x7131, size: 0x8, addend: 0x0, symName: __ZNSt3__16vectorIxNS_9allocatorIxEEE5beginB8ne210108Ev, symObjAddr: 0x310, symBinAddr: 0x1000022C0, symSize: 0x40 }
  - { offset: 0x7155, size: 0x8, addend: 0x0, symName: __ZNSt3__16vectorIxNS_9allocatorIxEEE3endB8ne210108Ev, symObjAddr: 0x350, symBinAddr: 0x100002300, symSize: 0x40 }
  - { offset: 0x7179, size: 0x8, addend: 0x0, symName: __ZNKSt3__111__wrap_iterIPxEdeB8ne210108Ev, symObjAddr: 0x3C0, symBinAddr: 0x100002370, symSize: 0x20 }
  - { offset: 0x719D, size: 0x8, addend: 0x0, symName: __ZNSt3__111__wrap_iterIPxEppB8ne210108Ev, symObjAddr: 0x3E0, symBinAddr: 0x100002390, symSize: 0x20 }
  - { offset: 0x71C1, size: 0x8, addend: 0x0, symName: __ZNSt3__16vectorIxNS_9allocatorIxEEEixB8ne210108Em, symObjAddr: 0x400, symBinAddr: 0x1000023B0, symSize: 0x20 }
  - { offset: 0x71F4, size: 0x8, addend: 0x0, symName: __ZNSt3__16vectorIxNS_9allocatorIxEEED1B8ne210108Ev, symObjAddr: 0x450, symBinAddr: 0x100002400, symSize: 0x20 }
  - { offset: 0x721C, size: 0x8, addend: 0x0, symName: __ZNKSt3__111__wrap_iterIPxE4baseB8ne210108Ev, symObjAddr: 0x4B0, symBinAddr: 0x100002460, symSize: 0x20 }
  - { offset: 0x7240, size: 0x8, addend: 0x0, symName: __ZNSt3__16vectorIxNS_9allocatorIxEEEC2B8ne210108Em, symObjAddr: 0x4D0, symBinAddr: 0x100002480, symSize: 0xC0 }
  - { offset: 0x728A, size: 0x8, addend: 0x0, symName: __ZNSt3__19allocatorIxEC1B8ne210108Ev, symObjAddr: 0x590, symBinAddr: 0x100002540, symSize: 0x20 }
  - { offset: 0x72B2, size: 0x8, addend: 0x0, symName: __ZNSt3__16vectorIxNS_9allocatorIxEEE16__destroy_vectorC1B8ne210108ERS3_, symObjAddr: 0x5F0, symBinAddr: 0x1000025A0, symSize: 0x30 }
  - { offset: 0x72E8, size: 0x8, addend: 0x0, symName: __ZNSt3__16vectorIxNS_9allocatorIxEEE11__vallocateB8ne210108Em, symObjAddr: 0x620, symBinAddr: 0x1000025D0, symSize: 0x90 }
  - { offset: 0x732A, size: 0x8, addend: 0x0, symName: __ZNSt3__16vectorIxNS_9allocatorIxEEE18__construct_at_endEm, symObjAddr: 0x6B0, symBinAddr: 0x100002660, symSize: 0xB0 }
  - { offset: 0x739A, size: 0x8, addend: 0x0, symName: __ZNSt3__128__exception_guard_exceptionsINS_6vectorIxNS_9allocatorIxEEE16__destroy_vectorEE10__completeB8ne210108Ev, symObjAddr: 0x760, symBinAddr: 0x100002710, symSize: 0x20 }
  - { offset: 0x73BE, size: 0x8, addend: 0x0, symName: __ZNSt3__128__exception_guard_exceptionsINS_6vectorIxNS_9allocatorIxEEE16__destroy_vectorEED1B8ne210108Ev, symObjAddr: 0x780, symBinAddr: 0x100002730, symSize: 0x20 }
  - { offset: 0x73E6, size: 0x8, addend: 0x0, symName: __ZNSt3__19allocatorIxEC2B8ne210108Ev, symObjAddr: 0x7A0, symBinAddr: 0x100002750, symSize: 0x20 }
  - { offset: 0x740E, size: 0x8, addend: 0x0, symName: __ZNSt3__116__non_trivial_ifILb1ENS_9allocatorIxEEEC2B8ne210108Ev, symObjAddr: 0x7C0, symBinAddr: 0x100002770, symSize: 0x10 }
  - { offset: 0x7436, size: 0x8, addend: 0x0, symName: __ZNSt3__128__exception_guard_exceptionsINS_6vectorIxNS_9allocatorIxEEE16__destroy_vectorEEC1B8ne210108ES5_, symObjAddr: 0x7D0, symBinAddr: 0x100002780, symSize: 0x30 }
  - { offset: 0x746C, size: 0x8, addend: 0x0, symName: __ZNSt3__128__exception_guard_exceptionsINS_6vectorIxNS_9allocatorIxEEE16__destroy_vectorEEC2B8ne210108ES5_, symObjAddr: 0x800, symBinAddr: 0x1000027B0, symSize: 0x20 }
  - { offset: 0x74A2, size: 0x8, addend: 0x0, symName: __ZNSt3__16vectorIxNS_9allocatorIxEEE16__destroy_vectorC2B8ne210108ERS3_, symObjAddr: 0x820, symBinAddr: 0x1000027D0, symSize: 0x20 }
  - { offset: 0x74D8, size: 0x8, addend: 0x0, symName: __ZNKSt3__16vectorIxNS_9allocatorIxEEE8max_sizeB8ne210108Ev, symObjAddr: 0x840, symBinAddr: 0x1000027F0, symSize: 0x50 }
  - { offset: 0x74FC, size: 0x8, addend: 0x0, symName: __ZNSt3__16vectorIxNS_9allocatorIxEEE20__throw_length_errorB8ne210108Ev, symObjAddr: 0x890, symBinAddr: 0x100002840, symSize: 0x10 }
  - { offset: 0x750F, size: 0x8, addend: 0x0, symName: __ZNKSt3__16vectorIxNS_9allocatorIxEEE14__annotate_newB8ne210108Em, symObjAddr: 0x8E0, symBinAddr: 0x100002890, symSize: 0x70 }
  - { offset: 0x754C, size: 0x8, addend: 0x0, symName: __ZNSt3__116allocator_traitsINS_9allocatorIxEEE8max_sizeB8ne210108IS2_TnNS_9enable_ifIX16__has_max_size_vIKT_EEiE4typeELi0EEEmRKS2_, symObjAddr: 0x980, symBinAddr: 0x100002930, symSize: 0x20 }
  - { offset: 0x757E, size: 0x8, addend: 0x0, symName: __ZNSt3__114numeric_limitsIlE3maxB8ne210108Ev, symObjAddr: 0x9A0, symBinAddr: 0x100002950, symSize: 0x10 }
  - { offset: 0x75A5, size: 0x8, addend: 0x0, symName: __ZNKSt3__16__lessIvvEclB8ne210108ImmEEbRKT_RKT0_, symObjAddr: 0xA10, symBinAddr: 0x1000029C0, symSize: 0x30 }
  - { offset: 0x75F7, size: 0x8, addend: 0x0, symName: __ZNKSt3__19allocatorIxE8max_sizeB8ne210108Ev, symObjAddr: 0xA40, symBinAddr: 0x1000029F0, symSize: 0x20 }
  - { offset: 0x761B, size: 0x8, addend: 0x0, symName: __ZNSt3__123__libcpp_numeric_limitsIlLb1EE3maxB8ne210108Ev, symObjAddr: 0xA60, symBinAddr: 0x100002A10, symSize: 0x10 }
  - { offset: 0x762E, size: 0x8, addend: 0x0, symName: __ZNSt12length_errorC1B8ne210108EPKc, symObjAddr: 0xAD0, symBinAddr: 0x100002A80, symSize: 0x30 }
  - { offset: 0x7664, size: 0x8, addend: 0x0, symName: __ZNSt12length_errorC2B8ne210108EPKc, symObjAddr: 0xB00, symBinAddr: 0x100002AB0, symSize: 0x40 }
  - { offset: 0x769A, size: 0x8, addend: 0x0, symName: __ZNSt3__19allocatorIxE8allocateB8ne210108Em, symObjAddr: 0xB40, symBinAddr: 0x100002AF0, symSize: 0x50 }
  - { offset: 0x76CC, size: 0x8, addend: 0x0, symName: __ZNKSt3__16vectorIxNS_9allocatorIxEEE31__annotate_contiguous_containerB8ne210108EPKvS5_, symObjAddr: 0xC50, symBinAddr: 0x100002C00, symSize: 0x60 }
  - { offset: 0x770E, size: 0x8, addend: 0x0, symName: __ZNKSt3__16vectorIxNS_9allocatorIxEEE4dataB8ne210108Ev, symObjAddr: 0xCB0, symBinAddr: 0x100002C60, symSize: 0x20 }
  - { offset: 0x7732, size: 0x8, addend: 0x0, symName: __ZNKSt3__16vectorIxNS_9allocatorIxEEE8capacityB8ne210108Ev, symObjAddr: 0xCD0, symBinAddr: 0x100002C80, symSize: 0x20 }
  - { offset: 0x776F, size: 0x8, addend: 0x0, symName: __ZNSt3__16vectorIxNS_9allocatorIxEEE21_ConstructTransactionC1B8ne210108ERS3_m, symObjAddr: 0xD20, symBinAddr: 0x100002CD0, symSize: 0x30 }
  - { offset: 0x77B5, size: 0x8, addend: 0x0, symName: __ZNSt3__116allocator_traitsINS_9allocatorIxEEE9constructB8ne210108IxJETnNS_9enable_ifIX17__has_construct_vIS2_PT_DpT0_EEiE4typeELi0EEEvRS2_S7_DpOS8_, symObjAddr: 0xD50, symBinAddr: 0x100002D00, symSize: 0x30 }
  - { offset: 0x77FB, size: 0x8, addend: 0x0, symName: __ZNSt3__16vectorIxNS_9allocatorIxEEE21_ConstructTransactionD1B8ne210108Ev, symObjAddr: 0xD80, symBinAddr: 0x100002D30, symSize: 0x20 }
  - { offset: 0x7823, size: 0x8, addend: 0x0, symName: __ZNSt3__16vectorIxNS_9allocatorIxEEE21_ConstructTransactionC2B8ne210108ERS3_m, symObjAddr: 0xDA0, symBinAddr: 0x100002D50, symSize: 0x60 }
  - { offset: 0x7869, size: 0x8, addend: 0x0, symName: __ZNKSt3__16vectorIxNS_9allocatorIxEEE19__annotate_increaseB8ne210108Em, symObjAddr: 0xE00, symBinAddr: 0x100002DB0, symSize: 0x80 }
  - { offset: 0x789C, size: 0x8, addend: 0x0, symName: __ZNKSt3__16vectorIxNS_9allocatorIxEEE4sizeB8ne210108Ev, symObjAddr: 0xE80, symBinAddr: 0x100002E30, symSize: 0x20 }
  - { offset: 0x78C0, size: 0x8, addend: 0x0, symName: __ZNSt3__19allocatorIxE9constructB8ne210108IxJEEEvPT_DpOT0_, symObjAddr: 0xEA0, symBinAddr: 0x100002E50, symSize: 0x20 }
  - { offset: 0x7900, size: 0x8, addend: 0x0, symName: __ZNSt3__16vectorIxNS_9allocatorIxEEE21_ConstructTransactionD2B8ne210108Ev, symObjAddr: 0xEC0, symBinAddr: 0x100002E70, symSize: 0x50 }
  - { offset: 0x7928, size: 0x8, addend: 0x0, symName: __ZNKSt3__16vectorIxNS_9allocatorIxEEE17__annotate_shrinkB8ne210108Em, symObjAddr: 0xF10, symBinAddr: 0x100002EC0, symSize: 0x70 }
  - { offset: 0x795B, size: 0x8, addend: 0x0, symName: __ZNSt3__128__exception_guard_exceptionsINS_6vectorIxNS_9allocatorIxEEE16__destroy_vectorEED2B8ne210108Ev, symObjAddr: 0xF80, symBinAddr: 0x100002F30, symSize: 0x40 }
  - { offset: 0x7983, size: 0x8, addend: 0x0, symName: __ZNSt3__16vectorIxNS_9allocatorIxEEE16__destroy_vectorclB8ne210108Ev, symObjAddr: 0xFC0, symBinAddr: 0x100002F70, symSize: 0x70 }
  - { offset: 0x79A7, size: 0x8, addend: 0x0, symName: __ZNSt3__16vectorIxNS_9allocatorIxEEE5clearB8ne210108Ev, symObjAddr: 0x1030, symBinAddr: 0x100002FE0, symSize: 0x40 }
  - { offset: 0x79DA, size: 0x8, addend: 0x0, symName: __ZNKSt3__16vectorIxNS_9allocatorIxEEE17__annotate_deleteB8ne210108Ev, symObjAddr: 0x1070, symBinAddr: 0x100003020, symSize: 0x80 }
  - { offset: 0x79FE, size: 0x8, addend: 0x0, symName: __ZNSt3__116allocator_traitsINS_9allocatorIxEEE10deallocateB8ne210108ERS2_Pxm, symObjAddr: 0x10F0, symBinAddr: 0x1000030A0, symSize: 0x30 }
  - { offset: 0x7A3F, size: 0x8, addend: 0x0, symName: __ZNSt3__16vectorIxNS_9allocatorIxEEE22__base_destruct_at_endB8ne210108EPx, symObjAddr: 0x1120, symBinAddr: 0x1000030D0, symSize: 0x80 }
  - { offset: 0x7A81, size: 0x8, addend: 0x0, symName: __ZNSt3__116allocator_traitsINS_9allocatorIxEEE7destroyB8ne210108IxTnNS_9enable_ifIX15__has_destroy_vIS2_PT_EEiE4typeELi0EEEvRS2_S7_, symObjAddr: 0x11A0, symBinAddr: 0x100003150, symSize: 0x30 }
  - { offset: 0x7AC2, size: 0x8, addend: 0x0, symName: __ZNSt3__19allocatorIxE7destroyB8ne210108EPx, symObjAddr: 0x11D0, symBinAddr: 0x100003180, symSize: 0x10 }
  - { offset: 0x7AF4, size: 0x8, addend: 0x0, symName: __ZNSt3__19allocatorIxE10deallocateB8ne210108EPxm, symObjAddr: 0x11E0, symBinAddr: 0x100003190, symSize: 0x30 }
  - { offset: 0x7B34, size: 0x8, addend: 0x0, symName: __ZNSt3__16vectorIxNS_9allocatorIxEEED2B8ne210108Ev, symObjAddr: 0x1270, symBinAddr: 0x100003220, symSize: 0x40 }
  - { offset: 0x7B5C, size: 0x8, addend: 0x0, symName: __ZNSt3__16vectorIxNS_9allocatorIxEEE11__make_iterB8ne210108EPx, symObjAddr: 0x12B0, symBinAddr: 0x100003260, symSize: 0x30 }
  - { offset: 0x7B8F, size: 0x8, addend: 0x0, symName: __ZNSt3__16vectorIxNS_9allocatorIxEEE26__add_alignment_assumptionB8ne210108IPxTnNS_9enable_ifIXsr10is_pointerIT_EE5valueEiE4typeELi0EEES5_S7_, symObjAddr: 0x12E0, symBinAddr: 0x100003290, symSize: 0x10 }
  - { offset: 0x7BC1, size: 0x8, addend: 0x0, symName: __ZNSt3__111__wrap_iterIPxEC1B8ne210108ES1_, symObjAddr: 0x12F0, symBinAddr: 0x1000032A0, symSize: 0x30 }
  - { offset: 0x7BF7, size: 0x8, addend: 0x0, symName: __ZNSt3__111__wrap_iterIPxEC2B8ne210108ES1_, symObjAddr: 0x1320, symBinAddr: 0x1000032D0, symSize: 0x20 }
  - { offset: 0x7C4B, size: 0x8, addend: 0x0, symName: __ZNKSt3__113basic_ostreamIcNS_11char_traitsIcEEE6sentrycvbB8ne210108Ev, symObjAddr: 0x14F0, symBinAddr: 0x1000034A0, symSize: 0x20 }
  - { offset: 0x7C6F, size: 0x8, addend: 0x0, symName: __ZNSt3__119ostreambuf_iteratorIcNS_11char_traitsIcEEEC1B8ne210108ERNS_13basic_ostreamIcS2_EE, symObjAddr: 0x16F0, symBinAddr: 0x1000036A0, symSize: 0x30 }
  - { offset: 0x7CA5, size: 0x8, addend: 0x0, symName: __ZNKSt3__18ios_base5flagsB8ne210108Ev, symObjAddr: 0x1720, symBinAddr: 0x1000036D0, symSize: 0x20 }
  - { offset: 0x7CCB, size: 0x8, addend: 0x0, symName: __ZNKSt3__19basic_iosIcNS_11char_traitsIcEEE4fillB8ne210108Ev, symObjAddr: 0x1740, symBinAddr: 0x1000036F0, symSize: 0x60 }
  - { offset: 0x7CEF, size: 0x8, addend: 0x0, symName: __ZNKSt3__119ostreambuf_iteratorIcNS_11char_traitsIcEEE6failedB8ne210108Ev, symObjAddr: 0x17A0, symBinAddr: 0x100003750, symSize: 0x20 }
  - { offset: 0x7D13, size: 0x8, addend: 0x0, symName: __ZNSt3__19basic_iosIcNS_11char_traitsIcEEE8setstateB8ne210108Ej, symObjAddr: 0x17C0, symBinAddr: 0x100003770, symSize: 0x30 }
  - { offset: 0x7D46, size: 0x8, addend: 0x0, symName: __ZNKSt3__18ios_base5widthB8ne210108Ev, symObjAddr: 0x17F0, symBinAddr: 0x1000037A0, symSize: 0x20 }
  - { offset: 0x7D6C, size: 0x8, addend: 0x0, symName: __ZNSt3__115basic_streambufIcNS_11char_traitsIcEEE5sputnB8ne210108EPKcl, symObjAddr: 0x1810, symBinAddr: 0x1000037C0, symSize: 0x30 }
  - { offset: 0x7DAC, size: 0x8, addend: 0x0, symName: __ZNSt3__112basic_stringIcNS_11char_traitsIcEENS_9allocatorIcEEEC1B8ne210108Emc, symObjAddr: 0x1840, symBinAddr: 0x1000037F0, symSize: 0x30 }
  - { offset: 0x7DF2, size: 0x8, addend: 0x0, symName: __ZNSt3__112basic_stringIcNS_11char_traitsIcEENS_9allocatorIcEEE4dataB8ne210108Ev, symObjAddr: 0x1870, symBinAddr: 0x100003820, symSize: 0x30 }
  - { offset: 0x7E16, size: 0x8, addend: 0x0, symName: __ZNSt3__18ios_base5widthB8ne210108El, symObjAddr: 0x18A0, symBinAddr: 0x100003850, symSize: 0x30 }
  - { offset: 0x7E5A, size: 0x8, addend: 0x0, symName: __ZNSt3__112basic_stringIcNS_11char_traitsIcEENS_9allocatorIcEEEC2B8ne210108Emc, symObjAddr: 0x18D0, symBinAddr: 0x100003880, symSize: 0x40 }
  - { offset: 0x7EA0, size: 0x8, addend: 0x0, symName: __ZNSt3__19allocatorIcEC1B8ne210108Ev, symObjAddr: 0x1910, symBinAddr: 0x1000038C0, symSize: 0x20 }
  - { offset: 0x7EC8, size: 0x8, addend: 0x0, symName: __ZNSt3__19allocatorIcEC2B8ne210108Ev, symObjAddr: 0x1930, symBinAddr: 0x1000038E0, symSize: 0x20 }
  - { offset: 0x7EF0, size: 0x8, addend: 0x0, symName: __ZNSt3__116__non_trivial_ifILb1ENS_9allocatorIcEEEC2B8ne210108Ev, symObjAddr: 0x1950, symBinAddr: 0x100003900, symSize: 0x10 }
  - { offset: 0x7F18, size: 0x8, addend: 0x0, symName: __ZNSt3__112basic_stringIcNS_11char_traitsIcEENS_9allocatorIcEEE13__get_pointerB8ne210108Ev, symObjAddr: 0x1970, symBinAddr: 0x100003920, symSize: 0x50 }
  - { offset: 0x7F3C, size: 0x8, addend: 0x0, symName: __ZNKSt3__112basic_stringIcNS_11char_traitsIcEENS_9allocatorIcEEE9__is_longB8ne210108Ev, symObjAddr: 0x19C0, symBinAddr: 0x100003970, symSize: 0x20 }
  - { offset: 0x7F60, size: 0x8, addend: 0x0, symName: __ZNSt3__112basic_stringIcNS_11char_traitsIcEENS_9allocatorIcEEE18__get_long_pointerB8ne210108Ev, symObjAddr: 0x19E0, symBinAddr: 0x100003990, symSize: 0x20 }
  - { offset: 0x7F84, size: 0x8, addend: 0x0, symName: __ZNSt3__112basic_stringIcNS_11char_traitsIcEENS_9allocatorIcEEE19__get_short_pointerB8ne210108Ev, symObjAddr: 0x1A00, symBinAddr: 0x1000039B0, symSize: 0x20 }
  - { offset: 0x7FA8, size: 0x8, addend: 0x0, symName: __ZNSt3__114pointer_traitsIPcE10pointer_toB8ne210108ERc, symObjAddr: 0x1A20, symBinAddr: 0x1000039D0, symSize: 0x10 }
  - { offset: 0x7FCA, size: 0x8, addend: 0x0, symName: __ZNSt3__119ostreambuf_iteratorIcNS_11char_traitsIcEEEC2B8ne210108ERNS_13basic_ostreamIcS2_EE, symObjAddr: 0x1A30, symBinAddr: 0x1000039E0, symSize: 0x50 }
  - { offset: 0x8000, size: 0x8, addend: 0x0, symName: __ZNKSt3__19basic_iosIcNS_11char_traitsIcEEE5rdbufB8ne210108Ev, symObjAddr: 0x1A80, symBinAddr: 0x100003A30, symSize: 0x20 }
  - { offset: 0x8024, size: 0x8, addend: 0x0, symName: __ZNKSt3__18ios_base5rdbufB8ne210108Ev, symObjAddr: 0x1AA0, symBinAddr: 0x100003A50, symSize: 0x20 }
  - { offset: 0x8048, size: 0x8, addend: 0x0, symName: __ZNKSt3__118_SentinelValueFillINS_11char_traitsIcEEE8__is_setB8ne210108Ev, symObjAddr: 0x1AC0, symBinAddr: 0x100003A70, symSize: 0x30 }
  - { offset: 0x806C, size: 0x8, addend: 0x0, symName: __ZNKSt3__19basic_iosIcNS_11char_traitsIcEEE5widenB8ne210108Ec, symObjAddr: 0x1AF0, symBinAddr: 0x100003AA0, symSize: 0x80 }
  - { offset: 0x809F, size: 0x8, addend: 0x0, symName: __ZNSt3__118_SentinelValueFillINS_11char_traitsIcEEEaSB8ne210108Ei, symObjAddr: 0x1B70, symBinAddr: 0x100003B20, symSize: 0x20 }
  - { offset: 0x80D2, size: 0x8, addend: 0x0, symName: __ZNKSt3__118_SentinelValueFillINS_11char_traitsIcEEE5__getB8ne210108Ev, symObjAddr: 0x1B90, symBinAddr: 0x100003B40, symSize: 0x10 }
  - { offset: 0x80F6, size: 0x8, addend: 0x0, symName: __ZNSt3__111char_traitsIcE3eofB8ne210108Ev, symObjAddr: 0x1BA0, symBinAddr: 0x100003B50, symSize: 0x10 }
  - { offset: 0x814B, size: 0x8, addend: 0x0, symName: __ZNKSt3__15ctypeIcE5widenB8ne210108Ec, symObjAddr: 0x1BE0, symBinAddr: 0x100003B90, symSize: 0x30 }
  - { offset: 0x817E, size: 0x8, addend: 0x0, symName: __ZNSt3__18ios_base8setstateB8ne210108Ej, symObjAddr: 0x1C10, symBinAddr: 0x100003BC0, symSize: 0x24 }
...
