---
triple:          'x86_64-apple-darwin'
binary-path:     './OutOfPlace'
relocations:
  - { offset: 0x1177A, size: 0x8, addend: 0x0, symName: __ZNSt3__1eqB8ne200100IPiEEbRKNS_11__wrap_iterIT_EES6_, symObjAddr: 0x920, symBinAddr: 0x1000014E0, symSize: 0x40 }
  - { offset: 0x117BD, size: 0x8, addend: 0x0, symName: __ZNSt3__14sortB8ne200100INS_11__wrap_iterIPiEEEEvT_S4_, symObjAddr: 0x9D0, symBinAddr: 0x100001590, symSize: 0x40 }
  - { offset: 0x117FF, size: 0x8, addend: 0x0, symName: __ZNSt3__16uniqueB8ne200100INS_11__wrap_iterIPiEEEET_S4_S4_, symObjAddr: 0xA10, symBinAddr: 0x1000015D0, symSize: 0x40 }
  - { offset: 0x11842, size: 0x8, addend: 0x0, symName: __ZNSt3__19make_pairB8ne200100IiiEENS_4pairINS_18__unwrap_referenceIu7__decayIT_EE4typeENS2_Iu7__decayIT0_EE4typeEEEOS3_OS7_, symObjAddr: 0xB40, symBinAddr: 0x100001700, symSize: 0x30 }
  - { offset: 0x11891, size: 0x8, addend: 0x0, symName: __ZNSt3__19make_pairB8ne200100IRiS1_EENS_4pairINS_18__unwrap_referenceIu7__decayIT_EE4typeENS3_Iu7__decayIT0_EE4typeEEEOS4_OS8_, symObjAddr: 0xB90, symBinAddr: 0x100001750, symSize: 0x30 }
  - { offset: 0x119FD, size: 0x8, addend: 0x0, symName: __ZNSt3__1eqB8ne200100IiiiiEEbRKNS_4pairIT_T0_EERKNS1_IT1_T2_EE, symObjAddr: 0xBF0, symBinAddr: 0x1000017B0, symSize: 0x40 }
  - { offset: 0x11A5E, size: 0x8, addend: 0x0, symName: __ZNSt3__1miB8ne200100IPiS1_EEDTmicldtfp_4baseEcldtfp0_4baseEERKNS_11__wrap_iterIT_EERKNS3_IT0_EE, symObjAddr: 0xC30, symBinAddr: 0x1000017F0, symSize: 0x40 }
  - { offset: 0x11AAA, size: 0x8, addend: 0x0, symName: __ZNSt3__14findB8ne200100INS_11__wrap_iterIPiEEiEET_S4_S4_RKT0_, symObjAddr: 0xC70, symBinAddr: 0x100001830, symSize: 0x70 }
  - { offset: 0x11B12, size: 0x8, addend: 0x0, symName: __ZNSt3__122__make_exception_guardB8ne200100INS_6vectorIiNS_9allocatorIiEEE16__destroy_vectorEEENS_28__exception_guard_exceptionsIT_EES7_, symObjAddr: 0xED0, symBinAddr: 0x100001A90, symSize: 0x40 }
  - { offset: 0x11B47, size: 0x8, addend: 0x0, symName: __ZNSt3__119__allocate_at_leastB8ne200100INS_9allocatorIiEEEENS_19__allocation_resultINS_16allocator_traitsIT_E7pointerEEERS5_m, symObjAddr: 0x11A0, symBinAddr: 0x100001D60, symSize: 0x40 }
  - { offset: 0x11B8A, size: 0x8, addend: 0x0, symName: __ZNSt3__13minB8ne200100ImEERKT_S3_S3_, symObjAddr: 0x11F0, symBinAddr: 0x100001DB0, symSize: 0x30 }
  - { offset: 0x11DB7, size: 0x8, addend: 0x0, symName: __ZNSt3__13minB8ne200100ImNS_6__lessIvvEEEERKT_S5_S5_T0_, symObjAddr: 0x1260, symBinAddr: 0x100001E20, symSize: 0x50 }
  - { offset: 0x12046, size: 0x8, addend: 0x0, symName: __ZNSt3__120__throw_length_errorB8ne200100EPKc, symObjAddr: 0x1310, symBinAddr: 0x100001ED0, symSize: 0x60 }
  - { offset: 0x1206E, size: 0x8, addend: 0x0, symName: __ZNSt3__117__libcpp_allocateB8ne200100IiEEPT_NS_15__element_countEm, symObjAddr: 0x1470, symBinAddr: 0x100002030, symSize: 0x60 }
  - { offset: 0x120DB, size: 0x8, addend: 0x0, symName: __ZNSt3__124__is_overaligned_for_newB8ne200100Em, symObjAddr: 0x14D0, symBinAddr: 0x100002090, symSize: 0x20 }
  - { offset: 0x12107, size: 0x8, addend: 0x0, symName: __ZNSt3__121__libcpp_operator_newB8ne200100IJmSt11align_val_tEEEPvDpT_, symObjAddr: 0x14F0, symBinAddr: 0x1000020B0, symSize: 0x30 }
  - { offset: 0x12151, size: 0x8, addend: 0x0, symName: __ZNSt3__121__libcpp_operator_newB8ne200100IJmEEEPvDpT_, symObjAddr: 0x1520, symBinAddr: 0x1000020E0, symSize: 0x20 }
  - { offset: 0x12188, size: 0x8, addend: 0x0, symName: __ZNSt3__112__to_addressB8ne200100IiEEPT_S2_, symObjAddr: 0x1590, symBinAddr: 0x100002150, symSize: 0x10 }
  - { offset: 0x121BD, size: 0x8, addend: 0x0, symName: __ZNSt3__114__construct_atB8ne200100IiJEPiEEPT_S3_DpOT0_, symObjAddr: 0x1600, symBinAddr: 0x1000021C0, symSize: 0x20 }
  - { offset: 0x121FC, size: 0x8, addend: 0x0, symName: __ZNSt3__112construct_atB8ne200100IiJEPiEEPT_S3_DpOT0_, symObjAddr: 0x1620, symBinAddr: 0x1000021E0, symSize: 0x20 }
  - { offset: 0x1223B, size: 0x8, addend: 0x0, symName: __ZNSt3__112__destroy_atB8ne200100IiTnNS_9enable_ifIXntsr8is_arrayIT_EE5valueEiE4typeELi0EEEvPS2_, symObjAddr: 0x1870, symBinAddr: 0x100002430, symSize: 0x10 }
  - { offset: 0x12272, size: 0x8, addend: 0x0, symName: __ZNSt3__119__libcpp_deallocateB8ne200100IiEEvPNS_15__type_identityIT_E4typeENS_15__element_countEm, symObjAddr: 0x18B0, symBinAddr: 0x100002470, symSize: 0x60 }
  - { offset: 0x122E9, size: 0x8, addend: 0x0, symName: __ZNSt3__124__libcpp_operator_deleteB8ne200100IJPimSt11align_val_tEEEvDpT_, symObjAddr: 0x1910, symBinAddr: 0x1000024D0, symSize: 0x30 }
  - { offset: 0x12342, size: 0x8, addend: 0x0, symName: __ZNSt3__124__libcpp_operator_deleteB8ne200100IJPimEEEvDpT_, symObjAddr: 0x1940, symBinAddr: 0x100002500, symSize: 0x30 }
  - { offset: 0x12388, size: 0x8, addend: 0x0, symName: __ZNSt3__130__uninitialized_allocator_copyB8ne200100INS_9allocatorIiEEPiS3_S3_EET2_RT_T0_T1_S4_, symObjAddr: 0x1BD0, symBinAddr: 0x100002790, symSize: 0x80 }
  - { offset: 0x12425, size: 0x8, addend: 0x0, symName: __ZNSt3__114__unwrap_rangeB8ne200100IPiS1_EEDaT_T0_, symObjAddr: 0x1C50, symBinAddr: 0x100002810, symSize: 0x40 }
  - { offset: 0x12471, size: 0x8, addend: 0x0, symName: __ZNSt3__135__uninitialized_allocator_copy_implB8ne200100INS_9allocatorIiEEiiTnNS_9enable_ifIXaaaaaasr31is_trivially_copy_constructibleIT0_EE5valuesr28is_trivially_copy_assignableIS4_EE5valuesr7is_sameIu14__remove_constIS4_Eu14__remove_constIT1_EEE5valuesr38__allocator_has_trivial_copy_constructIT_S4_EE5valueEiE4typeELi0EEEPS6_RS8_PS4_SD_SB_, symObjAddr: 0x1C90, symBinAddr: 0x100002850, symSize: 0x30 }
  - { offset: 0x124E9, size: 0x8, addend: 0x0, symName: __ZNSt3__113__unwrap_iterB8ne200100IPiNS_18__unwrap_iter_implIS1_Lb1EEETnNS_9enable_ifIXsr21is_copy_constructibleIT_EE5valueEiE4typeELi0EEEDTclsrT0_8__unwrapclsr3stdE7declvalIS5_EEEES5_, symObjAddr: 0x1CC0, symBinAddr: 0x100002880, symSize: 0x20 }
  - { offset: 0x1252D, size: 0x8, addend: 0x0, symName: __ZNSt3__113__rewrap_iterB8ne200100IPiS1_NS_18__unwrap_iter_implIS1_Lb1EEEEET_S4_T0_, symObjAddr: 0x1CE0, symBinAddr: 0x1000028A0, symSize: 0x40 }
  - { offset: 0x126E7, size: 0x8, addend: 0x0, symName: __ZNSt3__14copyB8ne200100IPiS1_EET0_T_S3_S2_, symObjAddr: 0x1DD0, symBinAddr: 0x100002990, symSize: 0x40 }
  - { offset: 0x12741, size: 0x8, addend: 0x0, symName: __ZNSt3__16__copyB8ne200100IPiS1_S1_EENS_4pairIT_T1_EES3_T0_S4_, symObjAddr: 0x1E10, symBinAddr: 0x1000029D0, symSize: 0x40 }
  - { offset: 0x127A4, size: 0x8, addend: 0x0, symName: __ZNSt3__124__copy_move_unwrap_itersB8ne200100INS_11__copy_implEPiS2_S2_TnNS_9enable_ifIXsr12__can_rewrapIT0_T2_EE5valueEiE4typeELi0EEENS_4pairIS4_S5_EES4_T1_S5_, symObjAddr: 0x1E50, symBinAddr: 0x100002A10, symSize: 0xB0 }
  - { offset: 0x1287D, size: 0x8, addend: 0x0, symName: __ZNSt3__19make_pairB8ne200100IPiS1_EENS_4pairINS_18__unwrap_referenceIu7__decayIT_EE4typeENS3_Iu7__decayIT0_EE4typeEEEOS4_OS8_, symObjAddr: 0x1F40, symBinAddr: 0x100002B00, symSize: 0x30 }
  - { offset: 0x128CC, size: 0x8, addend: 0x0, symName: __ZNSt3__114__rewrap_rangeB8ne200100IPiS1_S1_EET0_S2_T1_, symObjAddr: 0x1F70, symBinAddr: 0x100002B30, symSize: 0x30 }
  - { offset: 0x12921, size: 0x8, addend: 0x0, symName: __ZNSt3__119__copy_trivial_implB8ne200100IiiEENS_4pairIPT_PT0_EES3_S3_S5_, symObjAddr: 0x1FA0, symBinAddr: 0x100002B60, symSize: 0x70 }
  - { offset: 0x12989, size: 0x8, addend: 0x0, symName: __ZNSt3__119__constexpr_memmoveB8ne200100IiiTnNS_9enable_ifIXsr23__is_always_bitcastableIT0_T_EE5valueEiE4typeELi0EEEPS3_S6_PS2_NS_15__element_countE, symObjAddr: 0x2010, symBinAddr: 0x100002BD0, symSize: 0x50 }
  - { offset: 0x129F7, size: 0x8, addend: 0x0, symName: __ZNSt3__19make_pairB8ne200100IRPiS1_EENS_4pairINS_18__unwrap_referenceIu7__decayIT_EE4typeENS4_Iu7__decayIT0_EE4typeEEEOS5_OS9_, symObjAddr: 0x2060, symBinAddr: 0x100002C20, symSize: 0x30 }
  - { offset: 0x12A8E, size: 0x8, addend: 0x0, symName: __ZNSt3__14sortB8ne200100INS_11__wrap_iterIPiEENS_6__lessIvvEEEEvT_S6_T0_, symObjAddr: 0x2190, symBinAddr: 0x100002D50, symSize: 0x40 }
  - { offset: 0x12AE8, size: 0x8, addend: 0x0, symName: __ZNSt3__111__sort_implB8ne200100INS_17_ClassicAlgPolicyENS_11__wrap_iterIPiEENS_6__lessIvvEEEEvT0_S7_RT1_, symObjAddr: 0x21D0, symBinAddr: 0x100002D90, symSize: 0xB0 }
  - { offset: 0x12B4B, size: 0x8, addend: 0x0, symName: __ZNSt3__123__debug_randomize_rangeB8ne200100INS_17_ClassicAlgPolicyENS_11__wrap_iterIPiEES4_EEvT0_T1_, symObjAddr: 0x2280, symBinAddr: 0x100002E40, symSize: 0x10 }
  - { offset: 0x12B9C, size: 0x8, addend: 0x0, symName: __ZNSt3__115__sort_dispatchB8ne200100INS_17_ClassicAlgPolicyEiTnNS_9enable_ifIXsr32__sort_is_specialized_in_libraryIT0_EE5valueEiE4typeELi0EEEvPS3_S6_RNS_6__lessIvvEE, symObjAddr: 0x2290, symBinAddr: 0x100002E50, symSize: 0x30 }
  - { offset: 0x12C07, size: 0x8, addend: 0x0, symName: __ZNSt3__113__unwrap_iterB8ne200100INS_11__wrap_iterIPiEENS_18__unwrap_iter_implIS3_Lb1EEETnNS_9enable_ifIXsr21is_copy_constructibleIT_EE5valueEiE4typeELi0EEEDTclsrT0_8__unwrapclsr3stdE7declvalIS7_EEEES7_, symObjAddr: 0x22C0, symBinAddr: 0x100002E80, symSize: 0x30 }
  - { offset: 0x12C4B, size: 0x8, addend: 0x0, symName: __ZNSt3__135__check_strict_weak_ordering_sortedB8ne200100IPiNS_6__lessIvvEEEEvT_S4_RT0_, symObjAddr: 0x22F0, symBinAddr: 0x100002EB0, symSize: 0x20 }
  - { offset: 0x12D27, size: 0x8, addend: 0x0, symName: __ZNSt3__112__to_addressB8ne200100INS_11__wrap_iterIPiEETnNS_9enable_ifIXsr4_AndINS_8is_classIT_EENS_15_IsFancyPointerIS6_EEEE5valueEiE4typeELi0EEEu7__decayIDTclsr19__to_address_helperIS6_EE6__callclsr3stdE7declvalIRKS6_EEEEESD_, symObjAddr: 0x2330, symBinAddr: 0x100002EF0, symSize: 0x20 }
  - { offset: 0x12D8B, size: 0x8, addend: 0x0, symName: __ZNSt3__16uniqueB8ne200100INS_11__wrap_iterIPiEENS_10__equal_toEEET_S5_S5_T0_, symObjAddr: 0x23B0, symBinAddr: 0x100002F70, symSize: 0x50 }
  - { offset: 0x12DE5, size: 0x8, addend: 0x0, symName: __ZNSt3__18__uniqueB8ne200100INS_17_ClassicAlgPolicyENS_11__wrap_iterIPiEES4_RNS_10__equal_toEEENS_4pairIT0_S8_EES8_T1_OT2_, symObjAddr: 0x2400, symBinAddr: 0x100002FC0, symSize: 0x120 }
  - { offset: 0x12E7C, size: 0x8, addend: 0x0, symName: __ZNSt3__115__adjacent_findB8ne200100INS_11__wrap_iterIPiEES3_NS_10__equal_toENS_10__identityEEET_S6_T0_RT1_RT2_, symObjAddr: 0x2520, symBinAddr: 0x1000030E0, symSize: 0xF0 }
  - { offset: 0x130B5, size: 0x8, addend: 0x0, symName: __ZNSt3__18__invokeB8ne200100IRNS_10__equal_toEJRiS3_EEEDTclclsr3stdE7declvalIT_EEspclsr3stdE7declvalIT0_EEEEOS4_DpOS5_, symObjAddr: 0x26C0, symBinAddr: 0x100003280, symSize: 0x30 }
  - { offset: 0x13116, size: 0x8, addend: 0x0, symName: __ZNSt3__18__invokeB8ne200100IRNS_10__identityEJRiEEEDTclclsr3stdE7declvalIT_EEspclsr3stdE7declvalIT0_EEEEOS4_DpOS5_, symObjAddr: 0x26F0, symBinAddr: 0x1000032B0, symSize: 0x30 }
  - { offset: 0x13195, size: 0x8, addend: 0x0, symName: __ZNSt3__1miB8ne200100IPKiPiEEDTmicldtfp_4baseEcldtfp0_4baseEERKNS_11__wrap_iterIT_EERKNS5_IT0_EE, symObjAddr: 0x27B0, symBinAddr: 0x100003370, symSize: 0x40 }
  - { offset: 0x131E1, size: 0x8, addend: 0x0, symName: __ZNSt3__1eqB8ne200100IPKiEEbRKNS_11__wrap_iterIT_EES7_, symObjAddr: 0x27F0, symBinAddr: 0x1000033B0, symSize: 0x40 }
  - { offset: 0x13224, size: 0x8, addend: 0x0, symName: __ZNSt3__14moveB8ne200100IPiS1_EET0_T_S3_S2_, symObjAddr: 0x2880, symBinAddr: 0x100003440, symSize: 0x40 }
  - { offset: 0x1327E, size: 0x8, addend: 0x0, symName: __ZNSt3__1miB8ne200100IPKiS2_EEDTmicldtfp_4baseEcldtfp0_4baseEERKNS_11__wrap_iterIT_EERKNS4_IT0_EE, symObjAddr: 0x28C0, symBinAddr: 0x100003480, symSize: 0x40 }
  - { offset: 0x132CA, size: 0x8, addend: 0x0, symName: __ZNSt3__16__moveB8ne200100INS_17_ClassicAlgPolicyEPiS2_S2_EENS_4pairIT0_T2_EES4_T1_S5_, symObjAddr: 0x2920, symBinAddr: 0x1000034E0, symSize: 0x40 }
  - { offset: 0x13336, size: 0x8, addend: 0x0, symName: __ZNSt3__124__copy_move_unwrap_itersB8ne200100INS_11__move_implINS_17_ClassicAlgPolicyEEEPiS4_S4_TnNS_9enable_ifIXsr12__can_rewrapIT0_T2_EE5valueEiE4typeELi0EEENS_4pairIS6_S7_EES6_T1_S7_, symObjAddr: 0x2960, symBinAddr: 0x100003520, symSize: 0xB0 }
  - { offset: 0x13418, size: 0x8, addend: 0x0, symName: __ZNSt3__113__rewrap_iterB8ne200100INS_11__wrap_iterIPiEES2_NS_18__unwrap_iter_implIS3_Lb1EEEEET_S6_T0_, symObjAddr: 0x2B30, symBinAddr: 0x1000036F0, symSize: 0x50 }
  - { offset: 0x1346D, size: 0x8, addend: 0x0, symName: __ZNSt3__16__findB8ne200100IiiNS_10__identityETnNS_9enable_ifIXaaaaaasr13__is_identityIT1_EE5valuesr41__libcpp_is_trivially_equality_comparableIT_T0_EE5valueeqstS4_Lm4EgeatS4_Lm4EEiE4typeELi0EEEPS4_S8_S8_RKS5_RS3_, symObjAddr: 0x2B80, symBinAddr: 0x100003740, symSize: 0x60 }
  - { offset: 0x134FC, size: 0x8, addend: 0x0, symName: __ZNSt3__119__constexpr_wmemchrB8ne200100IiiEEPT_S2_T0_m, symObjAddr: 0x2C90, symBinAddr: 0x100003850, symSize: 0x40 }
  - { offset: 0x14749, size: 0x8, addend: 0x0, symName: __ZSt28__throw_bad_array_new_lengthB8ne200100v, symObjAddr: 0x1430, symBinAddr: 0x100001FF0, symSize: 0x40 }
  - { offset: 0x14EF9, size: 0x8, addend: 0x0, symName: _main, symObjAddr: 0x0, symBinAddr: 0x100000BC0, symSize: 0x5C0 }
  - { offset: 0x150F7, size: 0x8, addend: 0x0, symName: __ZNSt3__19basic_iosIcNS_11char_traitsIcEEE3tieB8ne200100EPNS_13basic_ostreamIcS2_EE, symObjAddr: 0x5C0, symBinAddr: 0x100001180, symSize: 0x30 }
  - { offset: 0x15484, size: 0x8, addend: 0x0, symName: __ZNSt3__114basic_ifstreamIcNS_11char_traitsIcEEEC1EPKcj, symObjAddr: 0x5F0, symBinAddr: 0x1000011B0, symSize: 0x140 }
  - { offset: 0x154E8, size: 0x8, addend: 0x0, symName: __ZNSt3__114basic_ofstreamIcNS_11char_traitsIcEEEC1EPKcj, symObjAddr: 0x730, symBinAddr: 0x1000012F0, symSize: 0x140 }
  - { offset: 0x15532, size: 0x8, addend: 0x0, symName: __ZNSt3__16vectorIiNS_9allocatorIiEEEC1B8ne200100Em, symObjAddr: 0x870, symBinAddr: 0x100001430, symSize: 0x30 }
  - { offset: 0x1556A, size: 0x8, addend: 0x0, symName: __ZNSt3__16vectorIiNS_9allocatorIiEEE5beginB8ne200100Ev, symObjAddr: 0x8A0, symBinAddr: 0x100001460, symSize: 0x40 }
  - { offset: 0x15590, size: 0x8, addend: 0x0, symName: __ZNSt3__16vectorIiNS_9allocatorIiEEE3endB8ne200100Ev, symObjAddr: 0x8E0, symBinAddr: 0x1000014A0, symSize: 0x40 }
  - { offset: 0x155B6, size: 0x8, addend: 0x0, symName: __ZNKSt3__111__wrap_iterIPiEdeB8ne200100Ev, symObjAddr: 0x960, symBinAddr: 0x100001520, symSize: 0x20 }
  - { offset: 0x155DC, size: 0x8, addend: 0x0, symName: __ZNSt3__111__wrap_iterIPiEppB8ne200100Ev, symObjAddr: 0x980, symBinAddr: 0x100001540, symSize: 0x20 }
  - { offset: 0x15602, size: 0x8, addend: 0x0, symName: __ZNSt3__16vectorIiNS_9allocatorIiEEEC1B8ne200100ERKS3_, symObjAddr: 0x9A0, symBinAddr: 0x100001560, symSize: 0x30 }
  - { offset: 0x1563B, size: 0x8, addend: 0x0, symName: __ZNSt3__16vectorIiNS_9allocatorIiEEE5eraseENS_11__wrap_iterIPKiEES7_, symObjAddr: 0xA50, symBinAddr: 0x100001610, symSize: 0xC0 }
  - { offset: 0x15693, size: 0x8, addend: 0x0, symName: __ZNSt3__111__wrap_iterIPKiEC1B8ne200100IPiTnNS_9enable_ifIXsr4_AndINS_14is_convertibleIRKT_S2_EENS_7_OrImplIXaantcvbsr7is_sameIRS1_NS_15iterator_traitsIS8_E9referenceEEE5valuenesZT1_Li0EEE7_ResultINS_7is_sameISD_SG_EENSJ_ISD_RKu20__remove_reference_tISG_EEEEEEE5valueEiE4typeELi0EEERKNS0_IS8_EE, symObjAddr: 0xB10, symBinAddr: 0x1000016D0, symSize: 0x30 }
  - { offset: 0x156DA, size: 0x8, addend: 0x0, symName: __ZNSt3__16vectorIiNS_9allocatorIiEEEixB8ne200100Em, symObjAddr: 0xB70, symBinAddr: 0x100001730, symSize: 0x20 }
  - { offset: 0x15729, size: 0x8, addend: 0x0, symName: __ZNSt3__14pairIiiEaSB8ne200100EOS1_, symObjAddr: 0xBC0, symBinAddr: 0x100001780, symSize: 0x30 }
  - { offset: 0x1575D, size: 0x8, addend: 0x0, symName: __ZNSt3__114basic_ifstreamIcNS_11char_traitsIcEEE5closeEv, symObjAddr: 0xCE0, symBinAddr: 0x1000018A0, symSize: 0x40 }
  - { offset: 0x15785, size: 0x8, addend: 0x0, symName: __ZNSt3__114basic_ofstreamIcNS_11char_traitsIcEEE5closeEv, symObjAddr: 0xD20, symBinAddr: 0x1000018E0, symSize: 0x40 }
  - { offset: 0x157AD, size: 0x8, addend: 0x0, symName: __ZNSt3__16vectorIiNS_9allocatorIiEEED1B8ne200100Ev, symObjAddr: 0xD60, symBinAddr: 0x100001920, symSize: 0x20 }
  - { offset: 0x157D7, size: 0x8, addend: 0x0, symName: __ZNSt3__114basic_ofstreamIcNS_11char_traitsIcEEED1Ev, symObjAddr: 0xD80, symBinAddr: 0x100001940, symSize: 0x40 }
  - { offset: 0x15804, size: 0x8, addend: 0x0, symName: __ZNSt3__114basic_ifstreamIcNS_11char_traitsIcEEED1Ev, symObjAddr: 0xDC0, symBinAddr: 0x100001980, symSize: 0x40 }
  - { offset: 0x15831, size: 0x8, addend: 0x0, symName: __ZNSt3__16vectorIiNS_9allocatorIiEEEC2B8ne200100Em, symObjAddr: 0xE00, symBinAddr: 0x1000019C0, symSize: 0xB0 }
  - { offset: 0x1587E, size: 0x8, addend: 0x0, symName: __ZNSt3__19allocatorIiEC1B8ne200100Ev, symObjAddr: 0xEB0, symBinAddr: 0x100001A70, symSize: 0x20 }
  - { offset: 0x158A8, size: 0x8, addend: 0x0, symName: __ZNSt3__16vectorIiNS_9allocatorIiEEE16__destroy_vectorC1B8ne200100ERS3_, symObjAddr: 0xF10, symBinAddr: 0x100001AD0, symSize: 0x30 }
  - { offset: 0x158E0, size: 0x8, addend: 0x0, symName: __ZNSt3__16vectorIiNS_9allocatorIiEEE11__vallocateB8ne200100Em, symObjAddr: 0xF40, symBinAddr: 0x100001B00, symSize: 0x80 }
  - { offset: 0x15924, size: 0x8, addend: 0x0, symName: __ZNSt3__16vectorIiNS_9allocatorIiEEE18__construct_at_endEm, symObjAddr: 0xFC0, symBinAddr: 0x100001B80, symSize: 0xA0 }
  - { offset: 0x15994, size: 0x8, addend: 0x0, symName: __ZNSt3__128__exception_guard_exceptionsINS_6vectorIiNS_9allocatorIiEEE16__destroy_vectorEE10__completeB8ne200100Ev, symObjAddr: 0x1060, symBinAddr: 0x100001C20, symSize: 0x20 }
  - { offset: 0x159BA, size: 0x8, addend: 0x0, symName: __ZNSt3__128__exception_guard_exceptionsINS_6vectorIiNS_9allocatorIiEEE16__destroy_vectorEED1B8ne200100Ev, symObjAddr: 0x1080, symBinAddr: 0x100001C40, symSize: 0x20 }
  - { offset: 0x159E4, size: 0x8, addend: 0x0, symName: __ZNSt3__19allocatorIiEC2B8ne200100Ev, symObjAddr: 0x10A0, symBinAddr: 0x100001C60, symSize: 0x20 }
  - { offset: 0x15A0E, size: 0x8, addend: 0x0, symName: __ZNSt3__116__non_trivial_ifILb1ENS_9allocatorIiEEEC2B8ne200100Ev, symObjAddr: 0x10C0, symBinAddr: 0x100001C80, symSize: 0x10 }
  - { offset: 0x15A38, size: 0x8, addend: 0x0, symName: __ZNSt3__128__exception_guard_exceptionsINS_6vectorIiNS_9allocatorIiEEE16__destroy_vectorEEC1B8ne200100ES5_, symObjAddr: 0x10D0, symBinAddr: 0x100001C90, symSize: 0x30 }
  - { offset: 0x15A70, size: 0x8, addend: 0x0, symName: __ZNSt3__128__exception_guard_exceptionsINS_6vectorIiNS_9allocatorIiEEE16__destroy_vectorEEC2B8ne200100ES5_, symObjAddr: 0x1100, symBinAddr: 0x100001CC0, symSize: 0x20 }
  - { offset: 0x15AA8, size: 0x8, addend: 0x0, symName: __ZNSt3__16vectorIiNS_9allocatorIiEEE16__destroy_vectorC2B8ne200100ERS3_, symObjAddr: 0x1120, symBinAddr: 0x100001CE0, symSize: 0x20 }
  - { offset: 0x15AE0, size: 0x8, addend: 0x0, symName: __ZNKSt3__16vectorIiNS_9allocatorIiEEE8max_sizeB8ne200100Ev, symObjAddr: 0x1140, symBinAddr: 0x100001D00, symSize: 0x50 }
  - { offset: 0x15B06, size: 0x8, addend: 0x0, symName: __ZNSt3__16vectorIiNS_9allocatorIiEEE20__throw_length_errorB8ne200100Ev, symObjAddr: 0x1190, symBinAddr: 0x100001D50, symSize: 0x10 }
  - { offset: 0x15B1A, size: 0x8, addend: 0x0, symName: __ZNKSt3__16vectorIiNS_9allocatorIiEEE14__annotate_newB8ne200100Em, symObjAddr: 0x11E0, symBinAddr: 0x100001DA0, symSize: 0x10 }
  - { offset: 0x15B59, size: 0x8, addend: 0x0, symName: __ZNSt3__116allocator_traitsINS_9allocatorIiEEE8max_sizeB8ne200100IS2_vTnNS_9enable_ifIXntsr14__has_max_sizeIKT_EE5valueEiE4typeELi0EEEmRKS2_, symObjAddr: 0x1220, symBinAddr: 0x100001DE0, symSize: 0x20 }
  - { offset: 0x15B89, size: 0x8, addend: 0x0, symName: __ZNSt3__114numeric_limitsIlE3maxB8ne200100Ev, symObjAddr: 0x1240, symBinAddr: 0x100001E00, symSize: 0x10 }
  - { offset: 0x15BB1, size: 0x8, addend: 0x0, symName: __ZNKSt3__16__lessIvvEclB8ne200100ImmEEbRKT_RKT0_, symObjAddr: 0x12B0, symBinAddr: 0x100001E70, symSize: 0x30 }
  - { offset: 0x15C05, size: 0x8, addend: 0x0, symName: __ZNSt3__114numeric_limitsImE3maxB8ne200100Ev, symObjAddr: 0x12E0, symBinAddr: 0x100001EA0, symSize: 0x10 }
  - { offset: 0x15C19, size: 0x8, addend: 0x0, symName: __ZNSt3__123__libcpp_numeric_limitsImLb1EE3maxB8ne200100Ev, symObjAddr: 0x12F0, symBinAddr: 0x100001EB0, symSize: 0x10 }
  - { offset: 0x15C2D, size: 0x8, addend: 0x0, symName: __ZNSt3__123__libcpp_numeric_limitsIlLb1EE3maxB8ne200100Ev, symObjAddr: 0x1300, symBinAddr: 0x100001EC0, symSize: 0x10 }
  - { offset: 0x15C41, size: 0x8, addend: 0x0, symName: __ZNSt12length_errorC1B8ne200100EPKc, symObjAddr: 0x1370, symBinAddr: 0x100001F30, symSize: 0x30 }
  - { offset: 0x15C79, size: 0x8, addend: 0x0, symName: __ZNSt12length_errorC2B8ne200100EPKc, symObjAddr: 0x13A0, symBinAddr: 0x100001F60, symSize: 0x40 }
  - { offset: 0x15CB1, size: 0x8, addend: 0x0, symName: __ZNSt3__19allocatorIiE8allocateB8ne200100Em, symObjAddr: 0x13E0, symBinAddr: 0x100001FA0, symSize: 0x50 }
  - { offset: 0x15CFE, size: 0x8, addend: 0x0, symName: __ZNSt3__16vectorIiNS_9allocatorIiEEE21_ConstructTransactionC1B8ne200100ERS3_m, symObjAddr: 0x1540, symBinAddr: 0x100002100, symSize: 0x30 }
  - { offset: 0x15D46, size: 0x8, addend: 0x0, symName: __ZNSt3__116allocator_traitsINS_9allocatorIiEEE9constructB8ne200100IiJEvTnNS_9enable_ifIXntsr15__has_constructIS2_PT_DpT0_EE5valueEiE4typeELi0EEEvRS2_S7_DpOS8_, symObjAddr: 0x1570, symBinAddr: 0x100002130, symSize: 0x20 }
  - { offset: 0x15D8A, size: 0x8, addend: 0x0, symName: __ZNSt3__16vectorIiNS_9allocatorIiEEE21_ConstructTransactionD1B8ne200100Ev, symObjAddr: 0x15A0, symBinAddr: 0x100002160, symSize: 0x20 }
  - { offset: 0x15DB4, size: 0x8, addend: 0x0, symName: __ZNSt3__16vectorIiNS_9allocatorIiEEE21_ConstructTransactionC2B8ne200100ERS3_m, symObjAddr: 0x15C0, symBinAddr: 0x100002180, symSize: 0x40 }
  - { offset: 0x15DFC, size: 0x8, addend: 0x0, symName: __ZNSt3__16vectorIiNS_9allocatorIiEEE21_ConstructTransactionD2B8ne200100Ev, symObjAddr: 0x1640, symBinAddr: 0x100002200, symSize: 0x20 }
  - { offset: 0x15E26, size: 0x8, addend: 0x0, symName: __ZNSt3__128__exception_guard_exceptionsINS_6vectorIiNS_9allocatorIiEEE16__destroy_vectorEED2B8ne200100Ev, symObjAddr: 0x1660, symBinAddr: 0x100002220, symSize: 0x40 }
  - { offset: 0x15E50, size: 0x8, addend: 0x0, symName: __ZNSt3__16vectorIiNS_9allocatorIiEEE16__destroy_vectorclB8ne200100Ev, symObjAddr: 0x16A0, symBinAddr: 0x100002260, symSize: 0x70 }
  - { offset: 0x15E76, size: 0x8, addend: 0x0, symName: __ZNSt3__16vectorIiNS_9allocatorIiEEE5clearB8ne200100Ev, symObjAddr: 0x1710, symBinAddr: 0x1000022D0, symSize: 0x40 }
  - { offset: 0x15EAB, size: 0x8, addend: 0x0, symName: __ZNKSt3__16vectorIiNS_9allocatorIiEEE17__annotate_deleteB8ne200100Ev, symObjAddr: 0x1750, symBinAddr: 0x100002310, symSize: 0x10 }
  - { offset: 0x15ED1, size: 0x8, addend: 0x0, symName: __ZNSt3__116allocator_traitsINS_9allocatorIiEEE10deallocateB8ne200100ERS2_Pim, symObjAddr: 0x1760, symBinAddr: 0x100002320, symSize: 0x30 }
  - { offset: 0x15F13, size: 0x8, addend: 0x0, symName: __ZNKSt3__16vectorIiNS_9allocatorIiEEE8capacityB8ne200100Ev, symObjAddr: 0x1790, symBinAddr: 0x100002350, symSize: 0x20 }
  - { offset: 0x15F39, size: 0x8, addend: 0x0, symName: __ZNKSt3__16vectorIiNS_9allocatorIiEEE4sizeB8ne200100Ev, symObjAddr: 0x17B0, symBinAddr: 0x100002370, symSize: 0x20 }
  - { offset: 0x15F5F, size: 0x8, addend: 0x0, symName: __ZNSt3__16vectorIiNS_9allocatorIiEEE22__base_destruct_at_endB8ne200100EPi, symObjAddr: 0x17D0, symBinAddr: 0x100002390, symSize: 0x70 }
  - { offset: 0x15FA3, size: 0x8, addend: 0x0, symName: __ZNKSt3__16vectorIiNS_9allocatorIiEEE17__annotate_shrinkB8ne200100Em, symObjAddr: 0x1840, symBinAddr: 0x100002400, symSize: 0x10 }
  - { offset: 0x15FD8, size: 0x8, addend: 0x0, symName: __ZNSt3__116allocator_traitsINS_9allocatorIiEEE7destroyB8ne200100IivTnNS_9enable_ifIXntsr13__has_destroyIS2_PT_EE5valueEiE4typeELi0EEEvRS2_S7_, symObjAddr: 0x1850, symBinAddr: 0x100002410, symSize: 0x20 }
  - { offset: 0x16017, size: 0x8, addend: 0x0, symName: __ZNSt3__19allocatorIiE10deallocateB8ne200100EPim, symObjAddr: 0x1880, symBinAddr: 0x100002440, symSize: 0x30 }
  - { offset: 0x16059, size: 0x8, addend: 0x0, symName: __ZNSt3__16vectorIiNS_9allocatorIiEEE11__make_iterB8ne200100EPi, symObjAddr: 0x1970, symBinAddr: 0x100002530, symSize: 0x30 }
  - { offset: 0x1608E, size: 0x8, addend: 0x0, symName: __ZNSt3__16vectorIiNS_9allocatorIiEEE26__add_alignment_assumptionB8ne200100IPiTnNS_9enable_ifIXsr10is_pointerIT_EE5valueEiE4typeELi0EEES5_S7_, symObjAddr: 0x19A0, symBinAddr: 0x100002560, symSize: 0x10 }
  - { offset: 0x160C1, size: 0x8, addend: 0x0, symName: __ZNSt3__111__wrap_iterIPiEC1B8ne200100ES1_, symObjAddr: 0x19B0, symBinAddr: 0x100002570, symSize: 0x30 }
  - { offset: 0x160F9, size: 0x8, addend: 0x0, symName: __ZNSt3__111__wrap_iterIPiEC2B8ne200100ES1_, symObjAddr: 0x19E0, symBinAddr: 0x1000025A0, symSize: 0x20 }
  - { offset: 0x16131, size: 0x8, addend: 0x0, symName: __ZNKSt3__111__wrap_iterIPiE4baseB8ne200100Ev, symObjAddr: 0x1A00, symBinAddr: 0x1000025C0, symSize: 0x20 }
  - { offset: 0x16157, size: 0x8, addend: 0x0, symName: __ZNSt3__16vectorIiNS_9allocatorIiEEEC2B8ne200100ERKS3_, symObjAddr: 0x1A20, symBinAddr: 0x1000025E0, symSize: 0x80 }
  - { offset: 0x16190, size: 0x8, addend: 0x0, symName: __ZNSt3__116allocator_traitsINS_9allocatorIiEEE37select_on_container_copy_constructionB8ne200100IS2_vTnNS_9enable_ifIXntsr43__has_select_on_container_copy_constructionIKT_EE5valueEiE4typeELi0EEES2_RKS2_, symObjAddr: 0x1AA0, symBinAddr: 0x100002660, symSize: 0x10 }
  - { offset: 0x161C4, size: 0x8, addend: 0x0, symName: __ZNSt3__16vectorIiNS_9allocatorIiEEE16__init_with_sizeB8ne200100IPiS5_EEvT_T0_m, symObjAddr: 0x1AB0, symBinAddr: 0x100002670, symSize: 0xA0 }
  - { offset: 0x16238, size: 0x8, addend: 0x0, symName: __ZNSt3__16vectorIiNS_9allocatorIiEEE18__construct_at_endIPiS5_EEvT_T0_m, symObjAddr: 0x1B50, symBinAddr: 0x100002710, symSize: 0x80 }
  - { offset: 0x162C6, size: 0x8, addend: 0x0, symName: __ZNSt3__119__unwrap_range_implIPiS1_E8__unwrapB8ne200100ES1_S1_, symObjAddr: 0x1D20, symBinAddr: 0x1000028E0, symSize: 0x50 }
  - { offset: 0x162FD, size: 0x8, addend: 0x0, symName: __ZNSt3__14pairIPiS1_EC1B8ne200100IS1_S1_TnNS_9enable_ifIXclsr10_CheckArgsE23__is_pair_constructibleIT_T0_EEEiE4typeELi0EEEOS5_OS6_, symObjAddr: 0x1D70, symBinAddr: 0x100002930, symSize: 0x30 }
  - { offset: 0x1635B, size: 0x8, addend: 0x0, symName: __ZNSt3__14pairIPiS1_EC2B8ne200100IS1_S1_TnNS_9enable_ifIXclsr10_CheckArgsE23__is_pair_constructibleIT_T0_EEEiE4typeELi0EEEOS5_OS6_, symObjAddr: 0x1DA0, symBinAddr: 0x100002960, symSize: 0x30 }
  - { offset: 0x163C3, size: 0x8, addend: 0x0, symName: __ZNKSt3__111__copy_implclB8ne200100IiiTnNS_9enable_ifIXsr38__can_lower_copy_assignment_to_memmoveIT_T0_EE5valueEiE4typeELi0EEENS_4pairIPS3_PS4_EES8_S8_S9_, symObjAddr: 0x1F00, symBinAddr: 0x100002AC0, symSize: 0x40 }
  - { offset: 0x16430, size: 0x8, addend: 0x0, symName: __ZNSt3__14pairIPiS1_EC1B8ne200100IRS1_S1_TnNS_9enable_ifIXclsr10_CheckArgsE23__is_pair_constructibleIT_T0_EEEiE4typeELi0EEEOS6_OS7_, symObjAddr: 0x2090, symBinAddr: 0x100002C50, symSize: 0x30 }
  - { offset: 0x1648E, size: 0x8, addend: 0x0, symName: __ZNSt3__14pairIPiS1_EC2B8ne200100IRS1_S1_TnNS_9enable_ifIXclsr10_CheckArgsE23__is_pair_constructibleIT_T0_EEEiE4typeELi0EEEOS6_OS7_, symObjAddr: 0x20C0, symBinAddr: 0x100002C80, symSize: 0x30 }
  - { offset: 0x164EC, size: 0x8, addend: 0x0, symName: __ZNSt3__119__unwrap_range_implIPiS1_E8__rewrapB8ne200100ES1_S1_, symObjAddr: 0x20F0, symBinAddr: 0x100002CB0, symSize: 0x30 }
  - { offset: 0x1651D, size: 0x8, addend: 0x0, symName: __ZNSt3__118__unwrap_iter_implIPiLb1EE8__unwrapB8ne200100ES1_, symObjAddr: 0x2120, symBinAddr: 0x100002CE0, symSize: 0x20 }
  - { offset: 0x16540, size: 0x8, addend: 0x0, symName: __ZNSt3__118__unwrap_iter_implIPiLb1EE8__rewrapB8ne200100ES1_S1_, symObjAddr: 0x2140, symBinAddr: 0x100002D00, symSize: 0x50 }
  - { offset: 0x16576, size: 0x8, addend: 0x0, symName: __ZNSt3__118__unwrap_iter_implINS_11__wrap_iterIPiEELb1EE8__unwrapB8ne200100ES3_, symObjAddr: 0x2310, symBinAddr: 0x100002ED0, symSize: 0x20 }
  - { offset: 0x16599, size: 0x8, addend: 0x0, symName: __ZNSt3__119__to_address_helperINS_11__wrap_iterIPiEEvE6__callB8ne200100ERKS3_, symObjAddr: 0x2350, symBinAddr: 0x100002F10, symSize: 0x30 }
  - { offset: 0x165BC, size: 0x8, addend: 0x0, symName: __ZNSt3__114pointer_traitsINS_11__wrap_iterIPiEEE10to_addressB8ne200100ES3_, symObjAddr: 0x2380, symBinAddr: 0x100002F40, symSize: 0x30 }
  - { offset: 0x165E9, size: 0x8, addend: 0x0, symName: __ZNKSt3__110__equal_toclB8ne200100IiiEEbRKT_RKT0_, symObjAddr: 0x2610, symBinAddr: 0x1000031D0, symSize: 0x30 }
  - { offset: 0x16643, size: 0x8, addend: 0x0, symName: __ZNSt3__18_IterOpsINS_17_ClassicAlgPolicyEE11__iter_moveB8ne200100IRNS_11__wrap_iterIPiEETnNS_9enable_ifIXsr12is_referenceIDTdeclsr3stdE7declvalIRT_EEEEE5valueEiE4typeELi0EEEDTclsr3stdE4movedeclsr3stdE7declvalISA_EEEEOS9_, symObjAddr: 0x2640, symBinAddr: 0x100003200, symSize: 0x20 }
  - { offset: 0x16695, size: 0x8, addend: 0x0, symName: __ZNSt3__14pairINS_11__wrap_iterIPiEES3_EC1B8ne200100IS3_S3_TnNS_9enable_ifIXclsr10_CheckArgsE23__is_pair_constructibleIT_T0_EEEiE4typeELi0EEEOS7_OS8_, symObjAddr: 0x2660, symBinAddr: 0x100003220, symSize: 0x30 }
  - { offset: 0x166F3, size: 0x8, addend: 0x0, symName: __ZNSt3__14pairINS_11__wrap_iterIPiEES3_EC1B8ne200100IRS3_S6_TnNS_9enable_ifIXclsr10_CheckArgsE23__is_pair_constructibleIT_T0_EEEiE4typeELi0EEEOS8_OS9_, symObjAddr: 0x2690, symBinAddr: 0x100003250, symSize: 0x30 }
  - { offset: 0x1675B, size: 0x8, addend: 0x0, symName: __ZNKSt3__110__identityclB8ne200100IRiEEOT_S4_, symObjAddr: 0x2720, symBinAddr: 0x1000032E0, symSize: 0x20 }
  - { offset: 0x16798, size: 0x8, addend: 0x0, symName: __ZNSt3__18_IterOpsINS_17_ClassicAlgPolicyEE25__validate_iter_referenceB8ne200100IRNS_11__wrap_iterIPiEEEEvv, symObjAddr: 0x2740, symBinAddr: 0x100003300, symSize: 0x10 }
  - { offset: 0x167B6, size: 0x8, addend: 0x0, symName: __ZNSt3__14pairINS_11__wrap_iterIPiEES3_EC2B8ne200100IS3_S3_TnNS_9enable_ifIXclsr10_CheckArgsE23__is_pair_constructibleIT_T0_EEEiE4typeELi0EEEOS7_OS8_, symObjAddr: 0x2750, symBinAddr: 0x100003310, symSize: 0x30 }
  - { offset: 0x16814, size: 0x8, addend: 0x0, symName: __ZNSt3__14pairINS_11__wrap_iterIPiEES3_EC2B8ne200100IRS3_S6_TnNS_9enable_ifIXclsr10_CheckArgsE23__is_pair_constructibleIT_T0_EEEiE4typeELi0EEEOS8_OS9_, symObjAddr: 0x2780, symBinAddr: 0x100003340, symSize: 0x30 }
  - { offset: 0x16872, size: 0x8, addend: 0x0, symName: __ZNSt3__16vectorIiNS_9allocatorIiEEE17__destruct_at_endB8ne200100EPi, symObjAddr: 0x2830, symBinAddr: 0x1000033F0, symSize: 0x50 }
  - { offset: 0x168B6, size: 0x8, addend: 0x0, symName: __ZNKSt3__111__wrap_iterIPKiE4baseB8ne200100Ev, symObjAddr: 0x2900, symBinAddr: 0x1000034C0, symSize: 0x20 }
  - { offset: 0x168E6, size: 0x8, addend: 0x0, symName: __ZNKSt3__111__move_implINS_17_ClassicAlgPolicyEEclB8ne200100IiiTnNS_9enable_ifIXsr38__can_lower_move_assignment_to_memmoveIT_T0_EE5valueEiE4typeELi0EEENS_4pairIPS5_PS6_EESA_SA_SB_, symObjAddr: 0x2A10, symBinAddr: 0x1000035D0, symSize: 0x40 }
  - { offset: 0x1694E, size: 0x8, addend: 0x0, symName: __ZNSt3__111__wrap_iterIPKiEC2B8ne200100IPiTnNS_9enable_ifIXsr4_AndINS_14is_convertibleIRKT_S2_EENS_7_OrImplIXaantcvbsr7is_sameIRS1_NS_15iterator_traitsIS8_E9referenceEEE5valuenesZT1_Li0EEE7_ResultINS_7is_sameISD_SG_EENSJ_ISD_RKu20__remove_reference_tISG_EEEEEEE5valueEiE4typeELi0EEERKNS0_IS8_EE, symObjAddr: 0x2A50, symBinAddr: 0x100003610, symSize: 0x20 }
  - { offset: 0x16995, size: 0x8, addend: 0x0, symName: __ZNSt3__14pairIiiEC1B8ne200100IiiTnNS_9enable_ifIXclsr10_CheckArgsE23__is_pair_constructibleIT_T0_EEEiE4typeELi0EEEOS4_OS5_, symObjAddr: 0x2A70, symBinAddr: 0x100003630, symSize: 0x30 }
  - { offset: 0x169F3, size: 0x8, addend: 0x0, symName: __ZNSt3__14pairIiiEC2B8ne200100IiiTnNS_9enable_ifIXclsr10_CheckArgsE23__is_pair_constructibleIT_T0_EEEiE4typeELi0EEEOS4_OS5_, symObjAddr: 0x2AA0, symBinAddr: 0x100003660, symSize: 0x30 }
  - { offset: 0x16A51, size: 0x8, addend: 0x0, symName: __ZNSt3__14pairIiiEC1B8ne200100IRiS3_TnNS_9enable_ifIXclsr10_CheckArgsE23__is_pair_constructibleIT_T0_EEEiE4typeELi0EEEOS5_OS6_, symObjAddr: 0x2AD0, symBinAddr: 0x100003690, symSize: 0x30 }
  - { offset: 0x16AAF, size: 0x8, addend: 0x0, symName: __ZNSt3__14pairIiiEC2B8ne200100IRiS3_TnNS_9enable_ifIXclsr10_CheckArgsE23__is_pair_constructibleIT_T0_EEEiE4typeELi0EEEOS5_OS6_, symObjAddr: 0x2B00, symBinAddr: 0x1000036C0, symSize: 0x30 }
  - { offset: 0x16B0D, size: 0x8, addend: 0x0, symName: __ZNSt3__118__unwrap_iter_implINS_11__wrap_iterIPiEELb1EE8__rewrapB8ne200100ES3_S2_, symObjAddr: 0x2BE0, symBinAddr: 0x1000037A0, symSize: 0x50 }
  - { offset: 0x16B3E, size: 0x8, addend: 0x0, symName: __ZNKSt3__111__wrap_iterIPiEplB8ne200100El, symObjAddr: 0x2C30, symBinAddr: 0x1000037F0, symSize: 0x40 }
  - { offset: 0x16B80, size: 0x8, addend: 0x0, symName: __ZNSt3__111__wrap_iterIPiEpLB8ne200100El, symObjAddr: 0x2C70, symBinAddr: 0x100003830, symSize: 0x20 }
  - { offset: 0x16BB4, size: 0x8, addend: 0x0, symName: __ZNSt3__16vectorIiNS_9allocatorIiEEED2B8ne200100Ev, symObjAddr: 0x2CD0, symBinAddr: 0x100003890, symSize: 0x40 }
  - { offset: 0x16BDE, size: 0x8, addend: 0x0, symName: __ZNSt3__114basic_ofstreamIcNS_11char_traitsIcEEED2Ev, symObjAddr: 0x2D10, symBinAddr: 0x1000038D0, symSize: 0x60 }
  - { offset: 0x16C18, size: 0x8, addend: 0x0, symName: __ZTv0_n24_NSt3__114basic_ofstreamIcNS_11char_traitsIcEEED1Ev, symObjAddr: 0x2D70, symBinAddr: 0x100003930, symSize: 0x20 }
  - { offset: 0x16C2F, size: 0x8, addend: 0x0, symName: __ZNSt3__114basic_ifstreamIcNS_11char_traitsIcEEED2Ev, symObjAddr: 0x2D90, symBinAddr: 0x100003950, symSize: 0x60 }
  - { offset: 0x16C69, size: 0x8, addend: 0x0, symName: __ZTv0_n24_NSt3__114basic_ifstreamIcNS_11char_traitsIcEEED1Ev, symObjAddr: 0x2DF0, symBinAddr: 0x1000039B0, symSize: 0x20 }
  - { offset: 0x16C80, size: 0x8, addend: 0x0, symName: __ZNSt3__19basic_iosIcNS_11char_traitsIcEEEC2B8ne200100Ev, symObjAddr: 0x2E10, symBinAddr: 0x1000039D0, symSize: 0x40 }
  - { offset: 0x16CAA, size: 0x8, addend: 0x0, symName: __ZNSt3__113basic_istreamIcNS_11char_traitsIcEEEC2B8ne200100EPNS_15basic_streambufIcS2_EE, symObjAddr: 0x2E50, symBinAddr: 0x100003A10, symSize: 0x50 }
  - { offset: 0x16CEF, size: 0x8, addend: 0x0, symName: __ZNSt3__19basic_iosIcNS_11char_traitsIcEEE8setstateB8ne200100Ej, symObjAddr: 0x2EA0, symBinAddr: 0x100003A60, symSize: 0x30 }
  - { offset: 0x16D24, size: 0x8, addend: 0x0, symName: __ZNSt3__18ios_baseC2B8ne200100Ev, symObjAddr: 0x2ED0, symBinAddr: 0x100003A90, symSize: 0x30 }
  - { offset: 0x16D4E, size: 0x8, addend: 0x0, symName: __ZNSt3__19basic_iosIcNS_11char_traitsIcEEE4initB8ne200100EPNS_15basic_streambufIcS2_EE, symObjAddr: 0x2F00, symBinAddr: 0x100003AC0, symSize: 0x50 }
  - { offset: 0x16D85, size: 0x8, addend: 0x0, symName: __ZNSt3__118_SentinelValueFillINS_11char_traitsIcEEE6__initB8ne200100Ev, symObjAddr: 0x2F50, symBinAddr: 0x100003B10, symSize: 0x30 }
  - { offset: 0x16DAB, size: 0x8, addend: 0x0, symName: __ZNSt3__111char_traitsIcE3eofB8ne200100Ev, symObjAddr: 0x2F80, symBinAddr: 0x100003B40, symSize: 0x10 }
  - { offset: 0x16DBF, size: 0x8, addend: 0x0, symName: __ZNSt3__18ios_base8setstateB8ne200100Ej, symObjAddr: 0x2F90, symBinAddr: 0x100003B50, symSize: 0x30 }
  - { offset: 0x16DF6, size: 0x8, addend: 0x0, symName: __ZNSt3__113basic_ostreamIcNS_11char_traitsIcEEEC2B8ne200100EPNS_15basic_streambufIcS2_EE, symObjAddr: 0x2FC0, symBinAddr: 0x100003B80, symSize: 0x47 }
...
