---
triple:          'x86_64-apple-darwin'
binary-path:     a.out
relocations:
  - { offset: 0x614D, size: 0x8, addend: 0x0, symName: __ZNSt3__1eqB8ne200100IPiEEbRKNS_11__wrap_iterIT_EES6_, symObjAddr: 0x310, symBinAddr: 0x100002280, symSize: 0x40 }
  - { offset: 0x6190, size: 0x8, addend: 0x0, symName: __ZNSt3__14sortB8ne200100INS_11__wrap_iterIPiEEEEvT_S4_, symObjAddr: 0x390, symBinAddr: 0x100002300, symSize: 0x40 }
  - { offset: 0x61D2, size: 0x8, addend: 0x0, symName: __ZNSt3__16uniqueB8ne200100INS_11__wrap_iterIPiEEEET_S4_S4_, symObjAddr: 0x3D0, symBinAddr: 0x100002340, symSize: 0x40 }
  - { offset: 0x6215, size: 0x8, addend: 0x0, symName: __ZNSt3__122__make_exception_guardB8ne200100INS_6vectorIiNS_9allocatorIiEEE16__destroy_vectorEEENS_28__exception_guard_exceptionsIT_EES7_, symObjAddr: 0x610, symBinAddr: 0x100002580, symSize: 0x40 }
  - { offset: 0x624A, size: 0x8, addend: 0x0, symName: __ZNSt3__119__allocate_at_leastB8ne200100INS_9allocatorIiEEEENS_19__allocation_resultINS_16allocator_traitsIT_E7pointerEEERS5_m, symObjAddr: 0x8E0, symBinAddr: 0x100002850, symSize: 0x40 }
  - { offset: 0x628D, size: 0x8, addend: 0x0, symName: __ZNSt3__13minB8ne200100ImEERKT_S3_S3_, symObjAddr: 0x930, symBinAddr: 0x1000028A0, symSize: 0x30 }
  - { offset: 0x64BA, size: 0x8, addend: 0x0, symName: __ZNSt3__13minB8ne200100ImNS_6__lessIvvEEEERKT_S5_S5_T0_, symObjAddr: 0x9A0, symBinAddr: 0x100002910, symSize: 0x50 }
  - { offset: 0x6749, size: 0x8, addend: 0x0, symName: __ZNSt3__120__throw_length_errorB8ne200100EPKc, symObjAddr: 0xA50, symBinAddr: 0x1000029C0, symSize: 0x60 }
  - { offset: 0x6771, size: 0x8, addend: 0x0, symName: __ZNSt3__117__libcpp_allocateB8ne200100IiEEPT_NS_15__element_countEm, symObjAddr: 0xBB0, symBinAddr: 0x100002B20, symSize: 0x60 }
  - { offset: 0x67DE, size: 0x8, addend: 0x0, symName: __ZNSt3__124__is_overaligned_for_newB8ne200100Em, symObjAddr: 0xC10, symBinAddr: 0x100002B80, symSize: 0x20 }
  - { offset: 0x680A, size: 0x8, addend: 0x0, symName: __ZNSt3__121__libcpp_operator_newB8ne200100IJmSt11align_val_tEEEPvDpT_, symObjAddr: 0xC30, symBinAddr: 0x100002BA0, symSize: 0x30 }
  - { offset: 0x6854, size: 0x8, addend: 0x0, symName: __ZNSt3__121__libcpp_operator_newB8ne200100IJmEEEPvDpT_, symObjAddr: 0xC60, symBinAddr: 0x100002BD0, symSize: 0x20 }
  - { offset: 0x688B, size: 0x8, addend: 0x0, symName: __ZNSt3__112__to_addressB8ne200100IiEEPT_S2_, symObjAddr: 0xCD0, symBinAddr: 0x100002C40, symSize: 0x10 }
  - { offset: 0x68C0, size: 0x8, addend: 0x0, symName: __ZNSt3__114__construct_atB8ne200100IiJEPiEEPT_S3_DpOT0_, symObjAddr: 0xD40, symBinAddr: 0x100002CB0, symSize: 0x20 }
  - { offset: 0x68FF, size: 0x8, addend: 0x0, symName: __ZNSt3__112construct_atB8ne200100IiJEPiEEPT_S3_DpOT0_, symObjAddr: 0xD60, symBinAddr: 0x100002CD0, symSize: 0x20 }
  - { offset: 0x693E, size: 0x8, addend: 0x0, symName: __ZNSt3__112__destroy_atB8ne200100IiTnNS_9enable_ifIXntsr8is_arrayIT_EE5valueEiE4typeELi0EEEvPS2_, symObjAddr: 0xF90, symBinAddr: 0x100002F00, symSize: 0x10 }
  - { offset: 0x6975, size: 0x8, addend: 0x0, symName: __ZNSt3__119__libcpp_deallocateB8ne200100IiEEvPNS_15__type_identityIT_E4typeENS_15__element_countEm, symObjAddr: 0xFD0, symBinAddr: 0x100002F40, symSize: 0x60 }
  - { offset: 0x69EC, size: 0x8, addend: 0x0, symName: __ZNSt3__124__libcpp_operator_deleteB8ne200100IJPimSt11align_val_tEEEvDpT_, symObjAddr: 0x1030, symBinAddr: 0x100002FA0, symSize: 0x30 }
  - { offset: 0x6A45, size: 0x8, addend: 0x0, symName: __ZNSt3__124__libcpp_operator_deleteB8ne200100IJPimEEEvDpT_, symObjAddr: 0x1060, symBinAddr: 0x100002FD0, symSize: 0x30 }
  - { offset: 0x6A8B, size: 0x8, addend: 0x0, symName: __ZNSt3__14sortB8ne200100INS_11__wrap_iterIPiEENS_6__lessIvvEEEEvT_S6_T0_, symObjAddr: 0x1140, symBinAddr: 0x1000030B0, symSize: 0x40 }
  - { offset: 0x6AE5, size: 0x8, addend: 0x0, symName: __ZNSt3__111__sort_implB8ne200100INS_17_ClassicAlgPolicyENS_11__wrap_iterIPiEENS_6__lessIvvEEEEvT0_S7_RT1_, symObjAddr: 0x1180, symBinAddr: 0x1000030F0, symSize: 0xB0 }
  - { offset: 0x6B48, size: 0x8, addend: 0x0, symName: __ZNSt3__123__debug_randomize_rangeB8ne200100INS_17_ClassicAlgPolicyENS_11__wrap_iterIPiEES4_EEvT0_T1_, symObjAddr: 0x1230, symBinAddr: 0x1000031A0, symSize: 0x10 }
  - { offset: 0x6B99, size: 0x8, addend: 0x0, symName: __ZNSt3__115__sort_dispatchB8ne200100INS_17_ClassicAlgPolicyEiTnNS_9enable_ifIXsr32__sort_is_specialized_in_libraryIT0_EE5valueEiE4typeELi0EEEvPS3_S6_RNS_6__lessIvvEE, symObjAddr: 0x1240, symBinAddr: 0x1000031B0, symSize: 0x30 }
  - { offset: 0x6C04, size: 0x8, addend: 0x0, symName: __ZNSt3__113__unwrap_iterB8ne200100INS_11__wrap_iterIPiEENS_18__unwrap_iter_implIS3_Lb1EEETnNS_9enable_ifIXsr21is_copy_constructibleIT_EE5valueEiE4typeELi0EEEDTclsrT0_8__unwrapclsr3stdE7declvalIS7_EEEES7_, symObjAddr: 0x1270, symBinAddr: 0x1000031E0, symSize: 0x30 }
  - { offset: 0x6C48, size: 0x8, addend: 0x0, symName: __ZNSt3__135__check_strict_weak_ordering_sortedB8ne200100IPiNS_6__lessIvvEEEEvT_S4_RT0_, symObjAddr: 0x12A0, symBinAddr: 0x100003210, symSize: 0x20 }
  - { offset: 0x6D24, size: 0x8, addend: 0x0, symName: __ZNSt3__112__to_addressB8ne200100INS_11__wrap_iterIPiEETnNS_9enable_ifIXsr4_AndINS_8is_classIT_EENS_15_IsFancyPointerIS6_EEEE5valueEiE4typeELi0EEEu7__decayIDTclsr19__to_address_helperIS6_EE6__callclsr3stdE7declvalIRKS6_EEEEESD_, symObjAddr: 0x12E0, symBinAddr: 0x100003250, symSize: 0x20 }
  - { offset: 0x6D88, size: 0x8, addend: 0x0, symName: __ZNSt3__16uniqueB8ne200100INS_11__wrap_iterIPiEENS_10__equal_toEEET_S5_S5_T0_, symObjAddr: 0x1360, symBinAddr: 0x1000032D0, symSize: 0x50 }
  - { offset: 0x6DE2, size: 0x8, addend: 0x0, symName: __ZNSt3__18__uniqueB8ne200100INS_17_ClassicAlgPolicyENS_11__wrap_iterIPiEES4_RNS_10__equal_toEEENS_4pairIT0_S8_EES8_T1_OT2_, symObjAddr: 0x13B0, symBinAddr: 0x100003320, symSize: 0x120 }
  - { offset: 0x6E79, size: 0x8, addend: 0x0, symName: __ZNSt3__115__adjacent_findB8ne200100INS_11__wrap_iterIPiEES3_NS_10__equal_toENS_10__identityEEET_S6_T0_RT1_RT2_, symObjAddr: 0x14D0, symBinAddr: 0x100003440, symSize: 0xF0 }
  - { offset: 0x70B2, size: 0x8, addend: 0x0, symName: __ZNSt3__18__invokeB8ne200100IRNS_10__equal_toEJRiS3_EEEDTclclsr3stdE7declvalIT_EEspclsr3stdE7declvalIT0_EEEEOS4_DpOS5_, symObjAddr: 0x1670, symBinAddr: 0x1000035E0, symSize: 0x30 }
  - { offset: 0x7113, size: 0x8, addend: 0x0, symName: __ZNSt3__18__invokeB8ne200100IRNS_10__identityEJRiEEEDTclclsr3stdE7declvalIT_EEspclsr3stdE7declvalIT0_EEEEOS4_DpOS5_, symObjAddr: 0x16A0, symBinAddr: 0x100003610, symSize: 0x30 }
  - { offset: 0x7192, size: 0x8, addend: 0x0, symName: __ZNSt3__1miB8ne200100IPKiPiEEDTmicldtfp_4baseEcldtfp0_4baseEERKNS_11__wrap_iterIT_EERKNS5_IT0_EE, symObjAddr: 0x1760, symBinAddr: 0x1000036D0, symSize: 0x40 }
  - { offset: 0x71DE, size: 0x8, addend: 0x0, symName: __ZNSt3__1eqB8ne200100IPKiEEbRKNS_11__wrap_iterIT_EES7_, symObjAddr: 0x17A0, symBinAddr: 0x100003710, symSize: 0x40 }
  - { offset: 0x7221, size: 0x8, addend: 0x0, symName: __ZNSt3__14moveB8ne200100IPiS1_EET0_T_S3_S2_, symObjAddr: 0x1830, symBinAddr: 0x1000037A0, symSize: 0x40 }
  - { offset: 0x727B, size: 0x8, addend: 0x0, symName: __ZNSt3__1miB8ne200100IPKiS2_EEDTmicldtfp_4baseEcldtfp0_4baseEERKNS_11__wrap_iterIT_EERKNS4_IT0_EE, symObjAddr: 0x1870, symBinAddr: 0x1000037E0, symSize: 0x40 }
  - { offset: 0x72C7, size: 0x8, addend: 0x0, symName: __ZNSt3__16__moveB8ne200100INS_17_ClassicAlgPolicyEPiS2_S2_EENS_4pairIT0_T2_EES4_T1_S5_, symObjAddr: 0x18D0, symBinAddr: 0x100003840, symSize: 0x40 }
  - { offset: 0x7333, size: 0x8, addend: 0x0, symName: __ZNSt3__124__copy_move_unwrap_itersB8ne200100INS_11__move_implINS_17_ClassicAlgPolicyEEEPiS4_S4_TnNS_9enable_ifIXsr12__can_rewrapIT0_T2_EE5valueEiE4typeELi0EEENS_4pairIS6_S7_EES6_T1_S7_, symObjAddr: 0x1910, symBinAddr: 0x100003880, symSize: 0xB0 }
  - { offset: 0x73C2, size: 0x8, addend: 0x0, symName: __ZNSt3__114__unwrap_rangeB8ne200100IPiS1_EEDaT_T0_, symObjAddr: 0x19C0, symBinAddr: 0x100003930, symSize: 0x40 }
  - { offset: 0x757E, size: 0x8, addend: 0x0, symName: __ZNSt3__113__unwrap_iterB8ne200100IPiNS_18__unwrap_iter_implIS1_Lb1EEETnNS_9enable_ifIXsr21is_copy_constructibleIT_EE5valueEiE4typeELi0EEEDTclsrT0_8__unwrapclsr3stdE7declvalIS5_EEEES5_, symObjAddr: 0x1A40, symBinAddr: 0x1000039B0, symSize: 0x20 }
  - { offset: 0x75C2, size: 0x8, addend: 0x0, symName: __ZNSt3__19make_pairB8ne200100IPiS1_EENS_4pairINS_18__unwrap_referenceIu7__decayIT_EE4typeENS3_Iu7__decayIT0_EE4typeEEEOS4_OS8_, symObjAddr: 0x1A60, symBinAddr: 0x1000039D0, symSize: 0x30 }
  - { offset: 0x7611, size: 0x8, addend: 0x0, symName: __ZNSt3__114__rewrap_rangeB8ne200100IPiS1_S1_EET0_S2_T1_, symObjAddr: 0x1A90, symBinAddr: 0x100003A00, symSize: 0x30 }
  - { offset: 0x7666, size: 0x8, addend: 0x0, symName: __ZNSt3__113__rewrap_iterB8ne200100IPiS1_NS_18__unwrap_iter_implIS1_Lb1EEEEET_S4_T0_, symObjAddr: 0x1AC0, symBinAddr: 0x100003A30, symSize: 0x40 }
  - { offset: 0x770B, size: 0x8, addend: 0x0, symName: __ZNSt3__119__copy_trivial_implB8ne200100IiiEENS_4pairIPT_PT0_EES3_S3_S5_, symObjAddr: 0x1BB0, symBinAddr: 0x100003B20, symSize: 0x70 }
  - { offset: 0x7773, size: 0x8, addend: 0x0, symName: __ZNSt3__119__constexpr_memmoveB8ne200100IiiTnNS_9enable_ifIXsr23__is_always_bitcastableIT0_T_EE5valueEiE4typeELi0EEEPS3_S6_PS2_NS_15__element_countE, symObjAddr: 0x1C20, symBinAddr: 0x100003B90, symSize: 0x50 }
  - { offset: 0x77E1, size: 0x8, addend: 0x0, symName: __ZNSt3__19make_pairB8ne200100IRPiS1_EENS_4pairINS_18__unwrap_referenceIu7__decayIT_EE4typeENS4_Iu7__decayIT0_EE4typeEEEOS5_OS9_, symObjAddr: 0x1C70, symBinAddr: 0x100003BE0, symSize: 0x30 }
  - { offset: 0x878B, size: 0x8, addend: 0x0, symName: __ZSt28__throw_bad_array_new_lengthB8ne200100v, symObjAddr: 0xB70, symBinAddr: 0x100002AE0, symSize: 0x40 }
  - { offset: 0x8B4D, size: 0x8, addend: 0x0, symName: _main, symObjAddr: 0x0, symBinAddr: 0x100001F70, symSize: 0x230 }
  - { offset: 0x8CEF, size: 0x8, addend: 0x0, symName: __ZNSt3__19basic_iosIcNS_11char_traitsIcEEE3tieB8ne200100EPNS_13basic_ostreamIcS2_EE, symObjAddr: 0x230, symBinAddr: 0x1000021A0, symSize: 0x30 }
  - { offset: 0x8D33, size: 0x8, addend: 0x0, symName: __ZNSt3__16vectorIiNS_9allocatorIiEEEC1B8ne200100Em, symObjAddr: 0x260, symBinAddr: 0x1000021D0, symSize: 0x30 }
  - { offset: 0x8D6B, size: 0x8, addend: 0x0, symName: __ZNSt3__16vectorIiNS_9allocatorIiEEE5beginB8ne200100Ev, symObjAddr: 0x290, symBinAddr: 0x100002200, symSize: 0x40 }
  - { offset: 0x8D91, size: 0x8, addend: 0x0, symName: __ZNSt3__16vectorIiNS_9allocatorIiEEE3endB8ne200100Ev, symObjAddr: 0x2D0, symBinAddr: 0x100002240, symSize: 0x40 }
  - { offset: 0x8DB7, size: 0x8, addend: 0x0, symName: __ZNKSt3__111__wrap_iterIPiEdeB8ne200100Ev, symObjAddr: 0x350, symBinAddr: 0x1000022C0, symSize: 0x20 }
  - { offset: 0x8DDD, size: 0x8, addend: 0x0, symName: __ZNSt3__111__wrap_iterIPiEppB8ne200100Ev, symObjAddr: 0x370, symBinAddr: 0x1000022E0, symSize: 0x20 }
  - { offset: 0x8E03, size: 0x8, addend: 0x0, symName: __ZNSt3__16vectorIiNS_9allocatorIiEEE5eraseENS_11__wrap_iterIPKiEES7_, symObjAddr: 0x410, symBinAddr: 0x100002380, symSize: 0xC0 }
  - { offset: 0x8E5B, size: 0x8, addend: 0x0, symName: __ZNSt3__111__wrap_iterIPKiEC1B8ne200100IPiTnNS_9enable_ifIXsr4_AndINS_14is_convertibleIRKT_S2_EENS_7_OrImplIXaantcvbsr7is_sameIRS1_NS_15iterator_traitsIS8_E9referenceEEE5valuenesZT1_Li0EEE7_ResultINS_7is_sameISD_SG_EENSJ_ISD_RKu20__remove_reference_tISG_EEEEEEE5valueEiE4typeELi0EEERKNS0_IS8_EE, symObjAddr: 0x4D0, symBinAddr: 0x100002440, symSize: 0x30 }
  - { offset: 0x8EA2, size: 0x8, addend: 0x0, symName: __ZNKSt3__16vectorIiNS_9allocatorIiEEE4sizeB8ne200100Ev, symObjAddr: 0x500, symBinAddr: 0x100002470, symSize: 0x20 }
  - { offset: 0x8EC8, size: 0x8, addend: 0x0, symName: __ZNSt3__16vectorIiNS_9allocatorIiEEED1B8ne200100Ev, symObjAddr: 0x520, symBinAddr: 0x100002490, symSize: 0x20 }
  - { offset: 0x8EF2, size: 0x8, addend: 0x0, symName: __ZNSt3__16vectorIiNS_9allocatorIiEEEC2B8ne200100Em, symObjAddr: 0x540, symBinAddr: 0x1000024B0, symSize: 0xB0 }
  - { offset: 0x8F3F, size: 0x8, addend: 0x0, symName: __ZNSt3__19allocatorIiEC1B8ne200100Ev, symObjAddr: 0x5F0, symBinAddr: 0x100002560, symSize: 0x20 }
  - { offset: 0x8F69, size: 0x8, addend: 0x0, symName: __ZNSt3__16vectorIiNS_9allocatorIiEEE16__destroy_vectorC1B8ne200100ERS3_, symObjAddr: 0x650, symBinAddr: 0x1000025C0, symSize: 0x30 }
  - { offset: 0x8FA1, size: 0x8, addend: 0x0, symName: __ZNSt3__16vectorIiNS_9allocatorIiEEE11__vallocateB8ne200100Em, symObjAddr: 0x680, symBinAddr: 0x1000025F0, symSize: 0x80 }
  - { offset: 0x8FE5, size: 0x8, addend: 0x0, symName: __ZNSt3__16vectorIiNS_9allocatorIiEEE18__construct_at_endEm, symObjAddr: 0x700, symBinAddr: 0x100002670, symSize: 0xA0 }
  - { offset: 0x9055, size: 0x8, addend: 0x0, symName: __ZNSt3__128__exception_guard_exceptionsINS_6vectorIiNS_9allocatorIiEEE16__destroy_vectorEE10__completeB8ne200100Ev, symObjAddr: 0x7A0, symBinAddr: 0x100002710, symSize: 0x20 }
  - { offset: 0x907B, size: 0x8, addend: 0x0, symName: __ZNSt3__128__exception_guard_exceptionsINS_6vectorIiNS_9allocatorIiEEE16__destroy_vectorEED1B8ne200100Ev, symObjAddr: 0x7C0, symBinAddr: 0x100002730, symSize: 0x20 }
  - { offset: 0x90A5, size: 0x8, addend: 0x0, symName: __ZNSt3__19allocatorIiEC2B8ne200100Ev, symObjAddr: 0x7E0, symBinAddr: 0x100002750, symSize: 0x20 }
  - { offset: 0x90CF, size: 0x8, addend: 0x0, symName: __ZNSt3__116__non_trivial_ifILb1ENS_9allocatorIiEEEC2B8ne200100Ev, symObjAddr: 0x800, symBinAddr: 0x100002770, symSize: 0x10 }
  - { offset: 0x90F9, size: 0x8, addend: 0x0, symName: __ZNSt3__128__exception_guard_exceptionsINS_6vectorIiNS_9allocatorIiEEE16__destroy_vectorEEC1B8ne200100ES5_, symObjAddr: 0x810, symBinAddr: 0x100002780, symSize: 0x30 }
  - { offset: 0x9131, size: 0x8, addend: 0x0, symName: __ZNSt3__128__exception_guard_exceptionsINS_6vectorIiNS_9allocatorIiEEE16__destroy_vectorEEC2B8ne200100ES5_, symObjAddr: 0x840, symBinAddr: 0x1000027B0, symSize: 0x20 }
  - { offset: 0x9169, size: 0x8, addend: 0x0, symName: __ZNSt3__16vectorIiNS_9allocatorIiEEE16__destroy_vectorC2B8ne200100ERS3_, symObjAddr: 0x860, symBinAddr: 0x1000027D0, symSize: 0x20 }
  - { offset: 0x91A1, size: 0x8, addend: 0x0, symName: __ZNKSt3__16vectorIiNS_9allocatorIiEEE8max_sizeB8ne200100Ev, symObjAddr: 0x880, symBinAddr: 0x1000027F0, symSize: 0x50 }
  - { offset: 0x91C7, size: 0x8, addend: 0x0, symName: __ZNSt3__16vectorIiNS_9allocatorIiEEE20__throw_length_errorB8ne200100Ev, symObjAddr: 0x8D0, symBinAddr: 0x100002840, symSize: 0x10 }
  - { offset: 0x91DB, size: 0x8, addend: 0x0, symName: __ZNKSt3__16vectorIiNS_9allocatorIiEEE14__annotate_newB8ne200100Em, symObjAddr: 0x920, symBinAddr: 0x100002890, symSize: 0x10 }
  - { offset: 0x921A, size: 0x8, addend: 0x0, symName: __ZNSt3__116allocator_traitsINS_9allocatorIiEEE8max_sizeB8ne200100IS2_vTnNS_9enable_ifIXntsr14__has_max_sizeIKT_EE5valueEiE4typeELi0EEEmRKS2_, symObjAddr: 0x960, symBinAddr: 0x1000028D0, symSize: 0x20 }
  - { offset: 0x924A, size: 0x8, addend: 0x0, symName: __ZNSt3__114numeric_limitsIlE3maxB8ne200100Ev, symObjAddr: 0x980, symBinAddr: 0x1000028F0, symSize: 0x10 }
  - { offset: 0x9272, size: 0x8, addend: 0x0, symName: __ZNKSt3__16__lessIvvEclB8ne200100ImmEEbRKT_RKT0_, symObjAddr: 0x9F0, symBinAddr: 0x100002960, symSize: 0x30 }
  - { offset: 0x92C6, size: 0x8, addend: 0x0, symName: __ZNSt3__114numeric_limitsImE3maxB8ne200100Ev, symObjAddr: 0xA20, symBinAddr: 0x100002990, symSize: 0x10 }
  - { offset: 0x92DA, size: 0x8, addend: 0x0, symName: __ZNSt3__123__libcpp_numeric_limitsImLb1EE3maxB8ne200100Ev, symObjAddr: 0xA30, symBinAddr: 0x1000029A0, symSize: 0x10 }
  - { offset: 0x92EE, size: 0x8, addend: 0x0, symName: __ZNSt3__123__libcpp_numeric_limitsIlLb1EE3maxB8ne200100Ev, symObjAddr: 0xA40, symBinAddr: 0x1000029B0, symSize: 0x10 }
  - { offset: 0x9302, size: 0x8, addend: 0x0, symName: __ZNSt12length_errorC1B8ne200100EPKc, symObjAddr: 0xAB0, symBinAddr: 0x100002A20, symSize: 0x30 }
  - { offset: 0x933A, size: 0x8, addend: 0x0, symName: __ZNSt12length_errorC2B8ne200100EPKc, symObjAddr: 0xAE0, symBinAddr: 0x100002A50, symSize: 0x40 }
  - { offset: 0x9372, size: 0x8, addend: 0x0, symName: __ZNSt3__19allocatorIiE8allocateB8ne200100Em, symObjAddr: 0xB20, symBinAddr: 0x100002A90, symSize: 0x50 }
  - { offset: 0x93BF, size: 0x8, addend: 0x0, symName: __ZNSt3__16vectorIiNS_9allocatorIiEEE21_ConstructTransactionC1B8ne200100ERS3_m, symObjAddr: 0xC80, symBinAddr: 0x100002BF0, symSize: 0x30 }
  - { offset: 0x9407, size: 0x8, addend: 0x0, symName: __ZNSt3__116allocator_traitsINS_9allocatorIiEEE9constructB8ne200100IiJEvTnNS_9enable_ifIXntsr15__has_constructIS2_PT_DpT0_EE5valueEiE4typeELi0EEEvRS2_S7_DpOS8_, symObjAddr: 0xCB0, symBinAddr: 0x100002C20, symSize: 0x20 }
  - { offset: 0x944B, size: 0x8, addend: 0x0, symName: __ZNSt3__16vectorIiNS_9allocatorIiEEE21_ConstructTransactionD1B8ne200100Ev, symObjAddr: 0xCE0, symBinAddr: 0x100002C50, symSize: 0x20 }
  - { offset: 0x9475, size: 0x8, addend: 0x0, symName: __ZNSt3__16vectorIiNS_9allocatorIiEEE21_ConstructTransactionC2B8ne200100ERS3_m, symObjAddr: 0xD00, symBinAddr: 0x100002C70, symSize: 0x40 }
  - { offset: 0x94BD, size: 0x8, addend: 0x0, symName: __ZNSt3__16vectorIiNS_9allocatorIiEEE21_ConstructTransactionD2B8ne200100Ev, symObjAddr: 0xD80, symBinAddr: 0x100002CF0, symSize: 0x20 }
  - { offset: 0x94E7, size: 0x8, addend: 0x0, symName: __ZNSt3__128__exception_guard_exceptionsINS_6vectorIiNS_9allocatorIiEEE16__destroy_vectorEED2B8ne200100Ev, symObjAddr: 0xDA0, symBinAddr: 0x100002D10, symSize: 0x40 }
  - { offset: 0x9511, size: 0x8, addend: 0x0, symName: __ZNSt3__16vectorIiNS_9allocatorIiEEE16__destroy_vectorclB8ne200100Ev, symObjAddr: 0xDE0, symBinAddr: 0x100002D50, symSize: 0x70 }
  - { offset: 0x9537, size: 0x8, addend: 0x0, symName: __ZNSt3__16vectorIiNS_9allocatorIiEEE5clearB8ne200100Ev, symObjAddr: 0xE50, symBinAddr: 0x100002DC0, symSize: 0x40 }
  - { offset: 0x956C, size: 0x8, addend: 0x0, symName: __ZNKSt3__16vectorIiNS_9allocatorIiEEE17__annotate_deleteB8ne200100Ev, symObjAddr: 0xE90, symBinAddr: 0x100002E00, symSize: 0x10 }
  - { offset: 0x9592, size: 0x8, addend: 0x0, symName: __ZNSt3__116allocator_traitsINS_9allocatorIiEEE10deallocateB8ne200100ERS2_Pim, symObjAddr: 0xEA0, symBinAddr: 0x100002E10, symSize: 0x30 }
  - { offset: 0x95D4, size: 0x8, addend: 0x0, symName: __ZNKSt3__16vectorIiNS_9allocatorIiEEE8capacityB8ne200100Ev, symObjAddr: 0xED0, symBinAddr: 0x100002E40, symSize: 0x20 }
  - { offset: 0x95FA, size: 0x8, addend: 0x0, symName: __ZNSt3__16vectorIiNS_9allocatorIiEEE22__base_destruct_at_endB8ne200100EPi, symObjAddr: 0xEF0, symBinAddr: 0x100002E60, symSize: 0x70 }
  - { offset: 0x963E, size: 0x8, addend: 0x0, symName: __ZNKSt3__16vectorIiNS_9allocatorIiEEE17__annotate_shrinkB8ne200100Em, symObjAddr: 0xF60, symBinAddr: 0x100002ED0, symSize: 0x10 }
  - { offset: 0x9673, size: 0x8, addend: 0x0, symName: __ZNSt3__116allocator_traitsINS_9allocatorIiEEE7destroyB8ne200100IivTnNS_9enable_ifIXntsr13__has_destroyIS2_PT_EE5valueEiE4typeELi0EEEvRS2_S7_, symObjAddr: 0xF70, symBinAddr: 0x100002EE0, symSize: 0x20 }
  - { offset: 0x96B2, size: 0x8, addend: 0x0, symName: __ZNSt3__19allocatorIiE10deallocateB8ne200100EPim, symObjAddr: 0xFA0, symBinAddr: 0x100002F10, symSize: 0x30 }
  - { offset: 0x96F4, size: 0x8, addend: 0x0, symName: __ZNSt3__16vectorIiNS_9allocatorIiEEE11__make_iterB8ne200100EPi, symObjAddr: 0x1090, symBinAddr: 0x100003000, symSize: 0x30 }
  - { offset: 0x9729, size: 0x8, addend: 0x0, symName: __ZNSt3__16vectorIiNS_9allocatorIiEEE26__add_alignment_assumptionB8ne200100IPiTnNS_9enable_ifIXsr10is_pointerIT_EE5valueEiE4typeELi0EEES5_S7_, symObjAddr: 0x10C0, symBinAddr: 0x100003030, symSize: 0x10 }
  - { offset: 0x975C, size: 0x8, addend: 0x0, symName: __ZNSt3__111__wrap_iterIPiEC1B8ne200100ES1_, symObjAddr: 0x10D0, symBinAddr: 0x100003040, symSize: 0x30 }
  - { offset: 0x9794, size: 0x8, addend: 0x0, symName: __ZNSt3__111__wrap_iterIPiEC2B8ne200100ES1_, symObjAddr: 0x1100, symBinAddr: 0x100003070, symSize: 0x20 }
  - { offset: 0x97CC, size: 0x8, addend: 0x0, symName: __ZNKSt3__111__wrap_iterIPiE4baseB8ne200100Ev, symObjAddr: 0x1120, symBinAddr: 0x100003090, symSize: 0x20 }
  - { offset: 0x97F7, size: 0x8, addend: 0x0, symName: __ZNSt3__118__unwrap_iter_implINS_11__wrap_iterIPiEELb1EE8__unwrapB8ne200100ES3_, symObjAddr: 0x12C0, symBinAddr: 0x100003230, symSize: 0x20 }
  - { offset: 0x981A, size: 0x8, addend: 0x0, symName: __ZNSt3__119__to_address_helperINS_11__wrap_iterIPiEEvE6__callB8ne200100ERKS3_, symObjAddr: 0x1300, symBinAddr: 0x100003270, symSize: 0x30 }
  - { offset: 0x983D, size: 0x8, addend: 0x0, symName: __ZNSt3__114pointer_traitsINS_11__wrap_iterIPiEEE10to_addressB8ne200100ES3_, symObjAddr: 0x1330, symBinAddr: 0x1000032A0, symSize: 0x30 }
  - { offset: 0x986A, size: 0x8, addend: 0x0, symName: __ZNKSt3__110__equal_toclB8ne200100IiiEEbRKT_RKT0_, symObjAddr: 0x15C0, symBinAddr: 0x100003530, symSize: 0x30 }
  - { offset: 0x98C3, size: 0x8, addend: 0x0, symName: __ZNSt3__18_IterOpsINS_17_ClassicAlgPolicyEE11__iter_moveB8ne200100IRNS_11__wrap_iterIPiEETnNS_9enable_ifIXsr12is_referenceIDTdeclsr3stdE7declvalIRT_EEEEE5valueEiE4typeELi0EEEDTclsr3stdE4movedeclsr3stdE7declvalISA_EEEEOS9_, symObjAddr: 0x15F0, symBinAddr: 0x100003560, symSize: 0x20 }
  - { offset: 0x9913, size: 0x8, addend: 0x0, symName: __ZNSt3__14pairINS_11__wrap_iterIPiEES3_EC1B8ne200100IS3_S3_TnNS_9enable_ifIXclsr10_CheckArgsE23__is_pair_constructibleIT_T0_EEEiE4typeELi0EEEOS7_OS8_, symObjAddr: 0x1610, symBinAddr: 0x100003580, symSize: 0x30 }
  - { offset: 0x9971, size: 0x8, addend: 0x0, symName: __ZNSt3__14pairINS_11__wrap_iterIPiEES3_EC1B8ne200100IRS3_S6_TnNS_9enable_ifIXclsr10_CheckArgsE23__is_pair_constructibleIT_T0_EEEiE4typeELi0EEEOS8_OS9_, symObjAddr: 0x1640, symBinAddr: 0x1000035B0, symSize: 0x30 }
  - { offset: 0x99D9, size: 0x8, addend: 0x0, symName: __ZNKSt3__110__identityclB8ne200100IRiEEOT_S4_, symObjAddr: 0x16D0, symBinAddr: 0x100003640, symSize: 0x20 }
  - { offset: 0x9A16, size: 0x8, addend: 0x0, symName: __ZNSt3__18_IterOpsINS_17_ClassicAlgPolicyEE25__validate_iter_referenceB8ne200100IRNS_11__wrap_iterIPiEEEEvv, symObjAddr: 0x16F0, symBinAddr: 0x100003660, symSize: 0x10 }
  - { offset: 0x9A34, size: 0x8, addend: 0x0, symName: __ZNSt3__14pairINS_11__wrap_iterIPiEES3_EC2B8ne200100IS3_S3_TnNS_9enable_ifIXclsr10_CheckArgsE23__is_pair_constructibleIT_T0_EEEiE4typeELi0EEEOS7_OS8_, symObjAddr: 0x1700, symBinAddr: 0x100003670, symSize: 0x30 }
  - { offset: 0x9A92, size: 0x8, addend: 0x0, symName: __ZNSt3__14pairINS_11__wrap_iterIPiEES3_EC2B8ne200100IRS3_S6_TnNS_9enable_ifIXclsr10_CheckArgsE23__is_pair_constructibleIT_T0_EEEiE4typeELi0EEEOS8_OS9_, symObjAddr: 0x1730, symBinAddr: 0x1000036A0, symSize: 0x30 }
  - { offset: 0x9AF0, size: 0x8, addend: 0x0, symName: __ZNSt3__16vectorIiNS_9allocatorIiEEE17__destruct_at_endB8ne200100EPi, symObjAddr: 0x17E0, symBinAddr: 0x100003750, symSize: 0x50 }
  - { offset: 0x9B34, size: 0x8, addend: 0x0, symName: __ZNKSt3__111__wrap_iterIPKiE4baseB8ne200100Ev, symObjAddr: 0x18B0, symBinAddr: 0x100003820, symSize: 0x20 }
  - { offset: 0x9B7D, size: 0x8, addend: 0x0, symName: __ZNKSt3__111__move_implINS_17_ClassicAlgPolicyEEclB8ne200100IiiTnNS_9enable_ifIXsr38__can_lower_move_assignment_to_memmoveIT_T0_EE5valueEiE4typeELi0EEENS_4pairIPS5_PS6_EESA_SA_SB_, symObjAddr: 0x1A00, symBinAddr: 0x100003970, symSize: 0x40 }
  - { offset: 0x9BE5, size: 0x8, addend: 0x0, symName: __ZNSt3__119__unwrap_range_implIPiS1_E8__unwrapB8ne200100ES1_S1_, symObjAddr: 0x1B00, symBinAddr: 0x100003A70, symSize: 0x50 }
  - { offset: 0x9C1B, size: 0x8, addend: 0x0, symName: __ZNSt3__14pairIPiS1_EC1B8ne200100IS1_S1_TnNS_9enable_ifIXclsr10_CheckArgsE23__is_pair_constructibleIT_T0_EEEiE4typeELi0EEEOS5_OS6_, symObjAddr: 0x1B50, symBinAddr: 0x100003AC0, symSize: 0x30 }
  - { offset: 0x9C79, size: 0x8, addend: 0x0, symName: __ZNSt3__14pairIPiS1_EC2B8ne200100IS1_S1_TnNS_9enable_ifIXclsr10_CheckArgsE23__is_pair_constructibleIT_T0_EEEiE4typeELi0EEEOS5_OS6_, symObjAddr: 0x1B80, symBinAddr: 0x100003AF0, symSize: 0x30 }
  - { offset: 0x9CDC, size: 0x8, addend: 0x0, symName: __ZNSt3__14pairIPiS1_EC1B8ne200100IRS1_S1_TnNS_9enable_ifIXclsr10_CheckArgsE23__is_pair_constructibleIT_T0_EEEiE4typeELi0EEEOS6_OS7_, symObjAddr: 0x1CA0, symBinAddr: 0x100003C10, symSize: 0x30 }
  - { offset: 0x9D3A, size: 0x8, addend: 0x0, symName: __ZNSt3__14pairIPiS1_EC2B8ne200100IRS1_S1_TnNS_9enable_ifIXclsr10_CheckArgsE23__is_pair_constructibleIT_T0_EEEiE4typeELi0EEEOS6_OS7_, symObjAddr: 0x1CD0, symBinAddr: 0x100003C40, symSize: 0x30 }
  - { offset: 0x9D98, size: 0x8, addend: 0x0, symName: __ZNSt3__118__unwrap_iter_implIPiLb1EE8__unwrapB8ne200100ES1_, symObjAddr: 0x1D00, symBinAddr: 0x100003C70, symSize: 0x20 }
  - { offset: 0x9DBB, size: 0x8, addend: 0x0, symName: __ZNSt3__119__unwrap_range_implIPiS1_E8__rewrapB8ne200100ES1_S1_, symObjAddr: 0x1D20, symBinAddr: 0x100003C90, symSize: 0x30 }
  - { offset: 0x9DEC, size: 0x8, addend: 0x0, symName: __ZNSt3__118__unwrap_iter_implIPiLb1EE8__rewrapB8ne200100ES1_S1_, symObjAddr: 0x1D50, symBinAddr: 0x100003CC0, symSize: 0x50 }
  - { offset: 0x9E1D, size: 0x8, addend: 0x0, symName: __ZNSt3__111__wrap_iterIPKiEC2B8ne200100IPiTnNS_9enable_ifIXsr4_AndINS_14is_convertibleIRKT_S2_EENS_7_OrImplIXaantcvbsr7is_sameIRS1_NS_15iterator_traitsIS8_E9referenceEEE5valuenesZT1_Li0EEE7_ResultINS_7is_sameISD_SG_EENSJ_ISD_RKu20__remove_reference_tISG_EEEEEEE5valueEiE4typeELi0EEERKNS0_IS8_EE, symObjAddr: 0x1DA0, symBinAddr: 0x100003D10, symSize: 0x20 }
  - { offset: 0x9E64, size: 0x8, addend: 0x0, symName: __ZNSt3__16vectorIiNS_9allocatorIiEEED2B8ne200100Ev, symObjAddr: 0x1DC0, symBinAddr: 0x100003D30, symSize: 0x32 }
...
