---
triple:          'x86_64-apple-darwin'
binary-path:     late.o
relocations:
  - { offset: 0x5FD9, size: 0x8, addend: 0x0, symName: __ZNSt3__1eqB8ne200100IPNS_4pairIxxEEEEbRKNS_11__wrap_iterIT_EES8_, symObjAddr: 0x2E0, symBinAddr: 0x100003040, symSize: 0x40 }
  - { offset: 0x601C, size: 0x8, addend: 0x0, symName: __ZNSt3__122__make_exception_guardB8ne200100INS_6vectorINS_4pairIxxEENS_9allocatorIS3_EEE16__destroy_vectorEEENS_28__exception_guard_exceptionsIT_EES9_, symObjAddr: 0x470, symBinAddr: 0x1000031D0, symSize: 0x40 }
  - { offset: 0x6051, size: 0x8, addend: 0x0, symName: __ZNSt3__119__allocate_at_leastB8ne200100INS_9allocatorINS_4pairIxxEEEEEENS_19__allocation_resultINS_16allocator_traitsIT_E7pointerEEERS7_m, symObjAddr: 0x740, symBinAddr: 0x1000034A0, symSize: 0x40 }
  - { offset: 0x6094, size: 0x8, addend: 0x0, symName: __ZNSt3__13minB8ne200100ImEERKT_S3_S3_, symObjAddr: 0x790, symBinAddr: 0x1000034F0, symSize: 0x30 }
  - { offset: 0x62C1, size: 0x8, addend: 0x0, symName: __ZNSt3__13minB8ne200100ImNS_6__lessIvvEEEERKT_S5_S5_T0_, symObjAddr: 0x800, symBinAddr: 0x100003560, symSize: 0x50 }
  - { offset: 0x6550, size: 0x8, addend: 0x0, symName: __ZNSt3__120__throw_length_errorB8ne200100EPKc, symObjAddr: 0x8B0, symBinAddr: 0x100003610, symSize: 0x60 }
  - { offset: 0x6578, size: 0x8, addend: 0x0, symName: __ZNSt3__117__libcpp_allocateB8ne200100INS_4pairIxxEEEEPT_NS_15__element_countEm, symObjAddr: 0xA10, symBinAddr: 0x100003770, symSize: 0x60 }
  - { offset: 0x65E5, size: 0x8, addend: 0x0, symName: __ZNSt3__124__is_overaligned_for_newB8ne200100Em, symObjAddr: 0xA70, symBinAddr: 0x1000037D0, symSize: 0x20 }
  - { offset: 0x6611, size: 0x8, addend: 0x0, symName: __ZNSt3__121__libcpp_operator_newB8ne200100IJmSt11align_val_tEEEPvDpT_, symObjAddr: 0xA90, symBinAddr: 0x1000037F0, symSize: 0x30 }
  - { offset: 0x665B, size: 0x8, addend: 0x0, symName: __ZNSt3__121__libcpp_operator_newB8ne200100IJmEEEPvDpT_, symObjAddr: 0xAC0, symBinAddr: 0x100003820, symSize: 0x20 }
  - { offset: 0x6692, size: 0x8, addend: 0x0, symName: __ZNSt3__112__to_addressB8ne200100INS_4pairIxxEEEEPT_S4_, symObjAddr: 0xB30, symBinAddr: 0x100003890, symSize: 0x10 }
  - { offset: 0x66C7, size: 0x8, addend: 0x0, symName: __ZNSt3__114__construct_atB8ne200100INS_4pairIxxEEJEPS2_EEPT_S5_DpOT0_, symObjAddr: 0xBA0, symBinAddr: 0x100003900, symSize: 0x20 }
  - { offset: 0x6706, size: 0x8, addend: 0x0, symName: __ZNSt3__112construct_atB8ne200100INS_4pairIxxEEJEPS2_EEPT_S5_DpOT0_, symObjAddr: 0xBC0, symBinAddr: 0x100003920, symSize: 0x30 }
  - { offset: 0x6745, size: 0x8, addend: 0x0, symName: __ZNSt3__112__destroy_atB8ne200100INS_4pairIxxEETnNS_9enable_ifIXntsr8is_arrayIT_EE5valueEiE4typeELi0EEEvPS4_, symObjAddr: 0xE60, symBinAddr: 0x100003BC0, symSize: 0x10 }
  - { offset: 0x677C, size: 0x8, addend: 0x0, symName: __ZNSt3__119__libcpp_deallocateB8ne200100INS_4pairIxxEEEEvPNS_15__type_identityIT_E4typeENS_15__element_countEm, symObjAddr: 0xEA0, symBinAddr: 0x100003C00, symSize: 0x60 }
  - { offset: 0x67F3, size: 0x8, addend: 0x0, symName: __ZNSt3__124__libcpp_operator_deleteB8ne200100IJPNS_4pairIxxEEmSt11align_val_tEEEvDpT_, symObjAddr: 0xF00, symBinAddr: 0x100003C60, symSize: 0x30 }
  - { offset: 0x684C, size: 0x8, addend: 0x0, symName: __ZNSt3__124__libcpp_operator_deleteB8ne200100IJPNS_4pairIxxEEmEEEvDpT_, symObjAddr: 0xF30, symBinAddr: 0x100003C90, symSize: 0x30 }
  - { offset: 0x7789, size: 0x8, addend: 0x0, symName: __ZSt28__throw_bad_array_new_lengthB8ne200100v, symObjAddr: 0x9D0, symBinAddr: 0x100003730, symSize: 0x40 }
  - { offset: 0x7B54, size: 0x8, addend: 0x0, symName: _main, symObjAddr: 0x0, symBinAddr: 0x100002D60, symSize: 0x200 }
  - { offset: 0x7D2B, size: 0x8, addend: 0x0, symName: __ZNSt3__19basic_iosIcNS_11char_traitsIcEEE3tieB8ne200100EPNS_13basic_ostreamIcS2_EE, symObjAddr: 0x200, symBinAddr: 0x100002F60, symSize: 0x30 }
  - { offset: 0x7D6E, size: 0x8, addend: 0x0, symName: __ZNSt3__16vectorINS_4pairIxxEENS_9allocatorIS2_EEEC1B8ne200100Em, symObjAddr: 0x230, symBinAddr: 0x100002F90, symSize: 0x30 }
  - { offset: 0x7DA4, size: 0x8, addend: 0x0, symName: __ZNSt3__16vectorINS_4pairIxxEENS_9allocatorIS2_EEE5beginB8ne200100Ev, symObjAddr: 0x260, symBinAddr: 0x100002FC0, symSize: 0x40 }
  - { offset: 0x7DC8, size: 0x8, addend: 0x0, symName: __ZNSt3__16vectorINS_4pairIxxEENS_9allocatorIS2_EEE3endB8ne200100Ev, symObjAddr: 0x2A0, symBinAddr: 0x100003000, symSize: 0x40 }
  - { offset: 0x7DEC, size: 0x8, addend: 0x0, symName: __ZNKSt3__111__wrap_iterIPNS_4pairIxxEEEdeB8ne200100Ev, symObjAddr: 0x320, symBinAddr: 0x100003080, symSize: 0x20 }
  - { offset: 0x7E10, size: 0x8, addend: 0x0, symName: __ZNSt3__111__wrap_iterIPNS_4pairIxxEEEppB8ne200100Ev, symObjAddr: 0x340, symBinAddr: 0x1000030A0, symSize: 0x20 }
  - { offset: 0x7E34, size: 0x8, addend: 0x0, symName: __ZNSt3__16vectorINS_4pairIxxEENS_9allocatorIS2_EEEixB8ne200100Em, symObjAddr: 0x360, symBinAddr: 0x1000030C0, symSize: 0x20 }
  - { offset: 0x7E68, size: 0x8, addend: 0x0, symName: __ZNSt3__16vectorINS_4pairIxxEENS_9allocatorIS2_EEED1B8ne200100Ev, symObjAddr: 0x380, symBinAddr: 0x1000030E0, symSize: 0x20 }
  - { offset: 0x7E91, size: 0x8, addend: 0x0, symName: __ZNSt3__16vectorINS_4pairIxxEENS_9allocatorIS2_EEEC2B8ne200100Em, symObjAddr: 0x3A0, symBinAddr: 0x100003100, symSize: 0xB0 }
  - { offset: 0x7EDC, size: 0x8, addend: 0x0, symName: __ZNSt3__19allocatorINS_4pairIxxEEEC1B8ne200100Ev, symObjAddr: 0x450, symBinAddr: 0x1000031B0, symSize: 0x20 }
  - { offset: 0x7F05, size: 0x8, addend: 0x0, symName: __ZNSt3__16vectorINS_4pairIxxEENS_9allocatorIS2_EEE16__destroy_vectorC1B8ne200100ERS5_, symObjAddr: 0x4B0, symBinAddr: 0x100003210, symSize: 0x30 }
  - { offset: 0x7F3B, size: 0x8, addend: 0x0, symName: __ZNSt3__16vectorINS_4pairIxxEENS_9allocatorIS2_EEE11__vallocateB8ne200100Em, symObjAddr: 0x4E0, symBinAddr: 0x100003240, symSize: 0x80 }
  - { offset: 0x7F7D, size: 0x8, addend: 0x0, symName: __ZNSt3__16vectorINS_4pairIxxEENS_9allocatorIS2_EEE18__construct_at_endEm, symObjAddr: 0x560, symBinAddr: 0x1000032C0, symSize: 0xA0 }
  - { offset: 0x7FEB, size: 0x8, addend: 0x0, symName: __ZNSt3__128__exception_guard_exceptionsINS_6vectorINS_4pairIxxEENS_9allocatorIS3_EEE16__destroy_vectorEE10__completeB8ne200100Ev, symObjAddr: 0x600, symBinAddr: 0x100003360, symSize: 0x20 }
  - { offset: 0x8010, size: 0x8, addend: 0x0, symName: __ZNSt3__128__exception_guard_exceptionsINS_6vectorINS_4pairIxxEENS_9allocatorIS3_EEE16__destroy_vectorEED1B8ne200100Ev, symObjAddr: 0x620, symBinAddr: 0x100003380, symSize: 0x20 }
  - { offset: 0x8039, size: 0x8, addend: 0x0, symName: __ZNSt3__19allocatorINS_4pairIxxEEEC2B8ne200100Ev, symObjAddr: 0x640, symBinAddr: 0x1000033A0, symSize: 0x20 }
  - { offset: 0x8062, size: 0x8, addend: 0x0, symName: __ZNSt3__116__non_trivial_ifILb1ENS_9allocatorINS_4pairIxxEEEEEC2B8ne200100Ev, symObjAddr: 0x660, symBinAddr: 0x1000033C0, symSize: 0x10 }
  - { offset: 0x808B, size: 0x8, addend: 0x0, symName: __ZNSt3__128__exception_guard_exceptionsINS_6vectorINS_4pairIxxEENS_9allocatorIS3_EEE16__destroy_vectorEEC1B8ne200100ES7_, symObjAddr: 0x670, symBinAddr: 0x1000033D0, symSize: 0x30 }
  - { offset: 0x80C2, size: 0x8, addend: 0x0, symName: __ZNSt3__128__exception_guard_exceptionsINS_6vectorINS_4pairIxxEENS_9allocatorIS3_EEE16__destroy_vectorEEC2B8ne200100ES7_, symObjAddr: 0x6A0, symBinAddr: 0x100003400, symSize: 0x20 }
  - { offset: 0x80F9, size: 0x8, addend: 0x0, symName: __ZNSt3__16vectorINS_4pairIxxEENS_9allocatorIS2_EEE16__destroy_vectorC2B8ne200100ERS5_, symObjAddr: 0x6C0, symBinAddr: 0x100003420, symSize: 0x20 }
  - { offset: 0x812F, size: 0x8, addend: 0x0, symName: __ZNKSt3__16vectorINS_4pairIxxEENS_9allocatorIS2_EEE8max_sizeB8ne200100Ev, symObjAddr: 0x6E0, symBinAddr: 0x100003440, symSize: 0x50 }
  - { offset: 0x8154, size: 0x8, addend: 0x0, symName: __ZNSt3__16vectorINS_4pairIxxEENS_9allocatorIS2_EEE20__throw_length_errorB8ne200100Ev, symObjAddr: 0x730, symBinAddr: 0x100003490, symSize: 0x10 }
  - { offset: 0x8167, size: 0x8, addend: 0x0, symName: __ZNKSt3__16vectorINS_4pairIxxEENS_9allocatorIS2_EEE14__annotate_newB8ne200100Em, symObjAddr: 0x780, symBinAddr: 0x1000034E0, symSize: 0x10 }
  - { offset: 0x81A5, size: 0x8, addend: 0x0, symName: __ZNSt3__116allocator_traitsINS_9allocatorINS_4pairIxxEEEEE8max_sizeB8ne200100IS4_vTnNS_9enable_ifIXntsr14__has_max_sizeIKT_EE5valueEiE4typeELi0EEEmRKS4_, symObjAddr: 0x7C0, symBinAddr: 0x100003520, symSize: 0x20 }
  - { offset: 0x81D6, size: 0x8, addend: 0x0, symName: __ZNSt3__114numeric_limitsIlE3maxB8ne200100Ev, symObjAddr: 0x7E0, symBinAddr: 0x100003540, symSize: 0x10 }
  - { offset: 0x81FD, size: 0x8, addend: 0x0, symName: __ZNKSt3__16__lessIvvEclB8ne200100ImmEEbRKT_RKT0_, symObjAddr: 0x850, symBinAddr: 0x1000035B0, symSize: 0x30 }
  - { offset: 0x8250, size: 0x8, addend: 0x0, symName: __ZNSt3__114numeric_limitsImE3maxB8ne200100Ev, symObjAddr: 0x880, symBinAddr: 0x1000035E0, symSize: 0x10 }
  - { offset: 0x8264, size: 0x8, addend: 0x0, symName: __ZNSt3__123__libcpp_numeric_limitsImLb1EE3maxB8ne200100Ev, symObjAddr: 0x890, symBinAddr: 0x1000035F0, symSize: 0x10 }
  - { offset: 0x8278, size: 0x8, addend: 0x0, symName: __ZNSt3__123__libcpp_numeric_limitsIlLb1EE3maxB8ne200100Ev, symObjAddr: 0x8A0, symBinAddr: 0x100003600, symSize: 0x10 }
  - { offset: 0x828C, size: 0x8, addend: 0x0, symName: __ZNSt12length_errorC1B8ne200100EPKc, symObjAddr: 0x910, symBinAddr: 0x100003670, symSize: 0x30 }
  - { offset: 0x82C3, size: 0x8, addend: 0x0, symName: __ZNSt12length_errorC2B8ne200100EPKc, symObjAddr: 0x940, symBinAddr: 0x1000036A0, symSize: 0x40 }
  - { offset: 0x82F9, size: 0x8, addend: 0x0, symName: __ZNSt3__19allocatorINS_4pairIxxEEE8allocateB8ne200100Em, symObjAddr: 0x980, symBinAddr: 0x1000036E0, symSize: 0x50 }
  - { offset: 0x8345, size: 0x8, addend: 0x0, symName: __ZNSt3__16vectorINS_4pairIxxEENS_9allocatorIS2_EEE21_ConstructTransactionC1B8ne200100ERS5_m, symObjAddr: 0xAE0, symBinAddr: 0x100003840, symSize: 0x30 }
  - { offset: 0x838C, size: 0x8, addend: 0x0, symName: __ZNSt3__116allocator_traitsINS_9allocatorINS_4pairIxxEEEEE9constructB8ne200100IS3_JEvTnNS_9enable_ifIXntsr15__has_constructIS4_PT_DpT0_EE5valueEiE4typeELi0EEEvRS4_S9_DpOSA_, symObjAddr: 0xB10, symBinAddr: 0x100003870, symSize: 0x20 }
  - { offset: 0x83D1, size: 0x8, addend: 0x0, symName: __ZNSt3__16vectorINS_4pairIxxEENS_9allocatorIS2_EEE21_ConstructTransactionD1B8ne200100Ev, symObjAddr: 0xB40, symBinAddr: 0x1000038A0, symSize: 0x20 }
  - { offset: 0x83FA, size: 0x8, addend: 0x0, symName: __ZNSt3__16vectorINS_4pairIxxEENS_9allocatorIS2_EEE21_ConstructTransactionC2B8ne200100ERS5_m, symObjAddr: 0xB60, symBinAddr: 0x1000038C0, symSize: 0x40 }
  - { offset: 0x8441, size: 0x8, addend: 0x0, symName: __ZNSt3__14pairIxxEC1B8ne200100ILb1ETnNS_9enable_ifIXclsr13_CheckArgsDepIXT_EEE16__enable_defaultEEiE4typeELi0EEEv, symObjAddr: 0xBF0, symBinAddr: 0x100003950, symSize: 0x20 }
  - { offset: 0x847A, size: 0x8, addend: 0x0, symName: __ZNSt3__14pairIxxEC2B8ne200100ILb1ETnNS_9enable_ifIXclsr13_CheckArgsDepIXT_EEE16__enable_defaultEEiE4typeELi0EEEv, symObjAddr: 0xC10, symBinAddr: 0x100003970, symSize: 0x20 }
  - { offset: 0x84B3, size: 0x8, addend: 0x0, symName: __ZNSt3__16vectorINS_4pairIxxEENS_9allocatorIS2_EEE21_ConstructTransactionD2B8ne200100Ev, symObjAddr: 0xC30, symBinAddr: 0x100003990, symSize: 0x20 }
  - { offset: 0x84DC, size: 0x8, addend: 0x0, symName: __ZNSt3__128__exception_guard_exceptionsINS_6vectorINS_4pairIxxEENS_9allocatorIS3_EEE16__destroy_vectorEED2B8ne200100Ev, symObjAddr: 0xC50, symBinAddr: 0x1000039B0, symSize: 0x40 }
  - { offset: 0x8504, size: 0x8, addend: 0x0, symName: __ZNSt3__16vectorINS_4pairIxxEENS_9allocatorIS2_EEE16__destroy_vectorclB8ne200100Ev, symObjAddr: 0xC90, symBinAddr: 0x1000039F0, symSize: 0x70 }
  - { offset: 0x8528, size: 0x8, addend: 0x0, symName: __ZNSt3__16vectorINS_4pairIxxEENS_9allocatorIS2_EEE5clearB8ne200100Ev, symObjAddr: 0xD00, symBinAddr: 0x100003A60, symSize: 0x40 }
  - { offset: 0x855B, size: 0x8, addend: 0x0, symName: __ZNKSt3__16vectorINS_4pairIxxEENS_9allocatorIS2_EEE17__annotate_deleteB8ne200100Ev, symObjAddr: 0xD40, symBinAddr: 0x100003AA0, symSize: 0x10 }
  - { offset: 0x8580, size: 0x8, addend: 0x0, symName: __ZNSt3__116allocator_traitsINS_9allocatorINS_4pairIxxEEEEE10deallocateB8ne200100ERS4_PS3_m, symObjAddr: 0xD50, symBinAddr: 0x100003AB0, symSize: 0x30 }
  - { offset: 0x85C1, size: 0x8, addend: 0x0, symName: __ZNKSt3__16vectorINS_4pairIxxEENS_9allocatorIS2_EEE8capacityB8ne200100Ev, symObjAddr: 0xD80, symBinAddr: 0x100003AE0, symSize: 0x20 }
  - { offset: 0x85E5, size: 0x8, addend: 0x0, symName: __ZNKSt3__16vectorINS_4pairIxxEENS_9allocatorIS2_EEE4sizeB8ne200100Ev, symObjAddr: 0xDA0, symBinAddr: 0x100003B00, symSize: 0x20 }
  - { offset: 0x8609, size: 0x8, addend: 0x0, symName: __ZNSt3__16vectorINS_4pairIxxEENS_9allocatorIS2_EEE22__base_destruct_at_endB8ne200100EPS2_, symObjAddr: 0xDC0, symBinAddr: 0x100003B20, symSize: 0x70 }
  - { offset: 0x864B, size: 0x8, addend: 0x0, symName: __ZNKSt3__16vectorINS_4pairIxxEENS_9allocatorIS2_EEE17__annotate_shrinkB8ne200100Em, symObjAddr: 0xE30, symBinAddr: 0x100003B90, symSize: 0x10 }
  - { offset: 0x867F, size: 0x8, addend: 0x0, symName: __ZNSt3__116allocator_traitsINS_9allocatorINS_4pairIxxEEEEE7destroyB8ne200100IS3_vTnNS_9enable_ifIXntsr13__has_destroyIS4_PT_EE5valueEiE4typeELi0EEEvRS4_S9_, symObjAddr: 0xE40, symBinAddr: 0x100003BA0, symSize: 0x20 }
  - { offset: 0x86BE, size: 0x8, addend: 0x0, symName: __ZNSt3__19allocatorINS_4pairIxxEEE10deallocateB8ne200100EPS2_m, symObjAddr: 0xE70, symBinAddr: 0x100003BD0, symSize: 0x30 }
  - { offset: 0x86FE, size: 0x8, addend: 0x0, symName: __ZNSt3__16vectorINS_4pairIxxEENS_9allocatorIS2_EEE11__make_iterB8ne200100EPS2_, symObjAddr: 0xF60, symBinAddr: 0x100003CC0, symSize: 0x30 }
  - { offset: 0x8732, size: 0x8, addend: 0x0, symName: __ZNSt3__16vectorINS_4pairIxxEENS_9allocatorIS2_EEE26__add_alignment_assumptionB8ne200100IPS2_TnNS_9enable_ifIXsr10is_pointerIT_EE5valueEiE4typeELi0EEES7_S9_, symObjAddr: 0xF90, symBinAddr: 0x100003CF0, symSize: 0x10 }
  - { offset: 0x8765, size: 0x8, addend: 0x0, symName: __ZNSt3__111__wrap_iterIPNS_4pairIxxEEEC1B8ne200100ES3_, symObjAddr: 0xFA0, symBinAddr: 0x100003D00, symSize: 0x30 }
  - { offset: 0x879C, size: 0x8, addend: 0x0, symName: __ZNSt3__111__wrap_iterIPNS_4pairIxxEEEC2B8ne200100ES3_, symObjAddr: 0xFD0, symBinAddr: 0x100003D30, symSize: 0x20 }
  - { offset: 0x87D2, size: 0x8, addend: 0x0, symName: __ZNKSt3__111__wrap_iterIPNS_4pairIxxEEE4baseB8ne200100Ev, symObjAddr: 0xFF0, symBinAddr: 0x100003D50, symSize: 0x20 }
  - { offset: 0x87F7, size: 0x8, addend: 0x0, symName: __ZNSt3__16vectorINS_4pairIxxEENS_9allocatorIS2_EEED2B8ne200100Ev, symObjAddr: 0x1010, symBinAddr: 0x100003D70, symSize: 0x32 }
...
